(dp0
(I7
I3
tp1
F-0.9595091352364435
s(I200
I2
tp2
F-1026.0379125223997
s(I303
I2
tp3
F-154.54178799491598
s(I201
I3
tp4
F7.305363547265127
s(I43
I3
tp5
F-0.4584385988704587
s(I130
I1
tp6
F1423.9954408393783
s(I154
I2
tp7
F-3291.8803985177124
s(I252
I2
tp8
F-447.8091180356005
s(I292
I3
tp9
F141.31263903543643
s(I253
I3
tp10
F325.85064348202457
s(I95
I3
tp11
F15.429482669610385
s(I182
I1
tp12
F-0.8755017513837562
s(I206
I2
tp13
F-3062.0160356909364
s(I293
I2
tp14
F-63.67177107389521
s(I218
I1
tp15
F-0.8306181003013672
s(I242
I2
tp16
F-2399.7539966780714
s(I84
I2
tp17
F-1417.0406176153588
s(I195
I1
tp18
F-0.6417098992107214
s(I282
I3
tp19
F24.05374768099084
s(I14
I1
tp20
F171.99850270446353
s(I38
I2
tp21
F-2014.985725648998
s(I120
I2
tp22
F-148.10412970187323
s(I223
I2
tp23
F-19.538820592728886
s(I247
I1
tp24
F-0.6897308484907139
s(I50
I1
tp25
F-0.9969026148686803
s(I256
I1
tp26
F-0.5840312911099821
s(I3
I2
tp27
F-2314.0094302931893
s(I212
I3
tp28
F-147.00377480516764
s(I102
I1
tp29
F-0.9871233553389487
s(I276
I1
tp30
F-0.6906808804673388
s(I55
I2
tp31
F-655.2449965715637
s(I79
I1
tp32
F-0.9045441569353684
s(I248
I3
tp33
F280.99560435905016
s(I249
I2
tp34
F-3672.523941512415
s(I91
I2
tp35
F-10560.624298307712
s(I115
I1
tp36
F-0.9919191923955383
s(I202
I3
tp37
F9.539503482755926
s(I289
I1
tp38
F37.711862654551965
s(I44
I3
tp39
F-1095.2422692340347
s(I45
I2
tp40
F-15.410195419291018
s(I254
I3
tp41
F3.386251491667023
s(I80
I3
tp42
F-0.2521532346051511
s(I144
I1
tp43
F-0.9796341474934271
s(I93
I2
tp44
F-1551.0832559126866
s(I196
I1
tp45
F-0.6911929861752276
s(I283
I3
tp46
F132.44180473639386
s(I237
I1
tp47
F1336.0250409274345
s(I232
I1
tp48
F-0.4270985580923795
s(I209
I1
tp49
F-0.9465867445976676
s(I273
I3
tp50
F1.8755902921473318
s(I5
I1
tp51
F200.0001729417973
s(I64
I1
tp52
F-0.9990717323863817
s(I167
I3
tp53
F10.284504447935653
s(I278
I2
tp54
F-2356.5193852809516
s(I41
I1
tp55
F-0.9967829963262964
s(I116
I1
tp56
F144.01476294214615
s(I203
I3
tp57
F28.483163846785178
s(I290
I1
tp58
F18.810710118899635
s(I93
I1
tp59
F-0.9826500014070836
s(I267
I1
tp60
F-546.6492598811325
s(I255
I3
tp61
F2.217214888085787
s(I192
I2
tp62
F-25.408999753239385
s(I295
I2
tp63
F-662.9022568248444
s(I193
I3
tp64
F11.689103446228401
s(I244
I2
tp65
F-2061.108665383659
s(I284
I3
tp66
F89.93339865278179
s(I245
I3
tp67
F4.026367588774162
s(I198
I2
tp68
F-2416.6054002828687
s(I285
I2
tp69
F-178.84793448883482
s(I210
I1
tp70
F-0.8826612780243313
s(I234
I2
tp71
F-1458.569765347149
s(I76
I2
tp72
F-1563.0851754364871
s(I187
I1
tp73
F-0.9075881160247957
s(I274
I3
tp74
F4.15565941130017
s(I77
I3
tp75
F8.62859150554178
s(I6
I1
tp76
F-0.9992710365004187
s(I215
I2
tp77
F-1877.7878837300334
s(I239
I1
tp78
F-384.87397780931167
s(I42
I1
tp79
F-0.7368920541484888
s(I66
I2
tp80
F-204.19311575412027
s(I251
I2
tp81
F-20.652437581537427
s(I19
I1
tp82
F248.00453870229126
s(I204
I3
tp83
F2.198786999959545
s(I94
I1
tp84
F132.00447827784527
s(I118
I2
tp85
F-741.7798003811723
s(I205
I2
tp86
F-116.67953283754939
s(I47
I2
tp87
F-15.134703914841094
s(I71
I1
tp88
F-0.8597111948466795
s(I240
I3
tp89
F15.418390970800461
s(I304
I1
tp90
F43.843674552400984
s(I83
I2
tp91
F-6375.643981853775
s(I107
I1
tp92
F-0.9955364079288457
s(I194
I3
tp93
F68.61318249693487
s(I281
I1
tp94
F1.1633931567692721
s(I36
I3
tp95
F1.5057850678001987
s(I132
I2
tp96
F-86.40780516906959
s(I37
I2
tp97
F-1773.9632369409414
s(I246
I3
tp98
F18.315305897513163
s(I72
I3
tp99
F-158.19425911867123
s(I284
I2
tp100
F-525.1058761951616
s(I229
I2
tp101
F-269.2813082758804
s(I188
I1
tp102
F160.13578494728964
s(I275
I3
tp103
F56.12556661921956
s(I78
I3
tp104
F274.19404683546435
s(I224
I1
tp105
F262.0777855403512
s(I201
I1
tp106
F-0.6821464014218759
s(I265
I3
tp107
F2045.182403637456
s(I20
I1
tp108
F-0.9945376121829871
s(I253
I1
tp109
F-0.4590892464429295
s(I56
I1
tp110
F-0.9962534173569852
s(I270
I2
tp111
F-1261.1077559150983
s(I168
I2
tp112
F-14.93095173448858
s(I108
I1
tp113
F96.00359640778977
s(I195
I3
tp114
F16.008424978629257
s(I282
I1
tp115
F3.4196055554708917
s(I306
I2
tp116
F-2151.160312510566
s(I259
I1
tp117
F167.98168779434633
s(I247
I3
tp118
F21.194134113586756
s(I184
I2
tp119
F-15.952544685854784
s(I287
I2
tp120
F-162.0755243621827
s(I185
I3
tp121
F12.49972260349664
s(I236
I2
tp122
F-554.4880665321225
s(I276
I3
tp123
F3.302533250623832
s(I237
I3
tp124
F2205.1274251911373
s(I79
I3
tp125
F-0.6645863557280528
s(I190
I2
tp126
F-74.51620582421472
s(I277
I2
tp127
F-4279.909199449066
s(I16
I2
tp128
F-1107.9540991074025
s(I143
I1
tp129
F-0.9935118645397825
s(I17
I3
tp130
F-0.8783092081808992
s(I115
I3
tp131
F-0.2766840094310932
s(I202
I1
tp132
F65.17894442751849
s(I226
I2
tp133
F-4995.150203951878
s(I68
I2
tp134
F-15.142065692486595
s(I155
I2
tp135
F-773.0831024067738
s(I266
I3
tp136
F3.795050409455607
s(I69
I3
tp137
F2.6108822602878132
s(I254
I1
tp138
F-0.8133234512038973
s(I22
I2
tp139
F-4230.947604124599
s(I104
I2
tp140
F-81.32715697338247
s(I207
I2
tp141
F-2178.074907607229
s(I231
I1
tp142
F-0.9585729640706995
s(I144
I3
tp143
F-0.2807748328264064
s(I105
I3
tp144
F-0.7348964685581102
s(I58
I2
tp145
F-5482.33853529671
s(I243
I2
tp146
F-20.474699991557124
s(I11
I1
tp147
F-0.89951040047295
s(I196
I3
tp148
F21.537063312836203
s(I197
I2
tp149
F-976.1160800375684
s(I39
I2
tp150
F-1522.0566968170917
s(I63
I1
tp151
F-1.01005844446576
s(I232
I3
tp152
F2.8975393754496723
s(I268
I2
tp153
F-8002.220858281953
s(I233
I2
tp154
F-1374.6083189360274
s(I213
I2
tp155
F-20.219894819357524
s(I186
I3
tp156
F13.346685626549297
s(I273
I1
tp157
F-0.8233485901218156
s(I238
I3
tp158
F7.447997446818274
s(I64
I3
tp159
F-0.6710142739433638
s(I65
I2
tp160
F-468.47794664831736
s(I18
I3
tp161
F-0.8825941181706438
s(I116
I3
tp162
F10.92153779990059
s(I180
I1
tp163
F84.6818089107864
s(I267
I3
tp164
F3.556497350345714
s(I70
I3
tp165
F-0.3233651463494577
s(I216
I1
tp166
F30.658251915189886
s(I106
I3
tp167
F6.9190454699045025
s(I256
I2
tp168
F-1169.3481154105439
s(I257
I3
tp169
F11.605129918949517
s(I12
I1
tp170
F-0.9990829370370714
s(I245
I1
tp171
F-0.8940031688650598
s(I304
I2
tp172
F-2232.892203062668
s(I48
I1
tp173
F-0.987269491441092
s(I262
I2
tp174
F-15.554420649848812
s(I187
I3
tp175
F2.718320092042811
s(I274
I1
tp176
F-91.69991086638959
s(I298
I2
tp177
F-6587.945255256101
s(I77
I1
tp178
F3817.959788125771
s(I141
I3
tp179
F-0.4601982231172958
s(I239
I3
tp180
F-4.5340419879413325
s(I279
I2
tp181
F-3129.074334805651
s(I303
I1
tp182
F13.166069776440224
s(I19
I3
tp183
F10.307586857545108
s(I130
I2
tp184
F-192.98016894958832
s(I228
I2
tp185
F-1533.1868938318573
s(I268
I3
tp186
F4.008361732437357
s(I229
I3
tp187
F6.852506904874371
s(I71
I3
tp188
F-0.8020542173622398
s(I182
I2
tp189
F-15.506079053468856
s(I269
I2
tp190
F-18.06145833329538
s(I8
I2
tp191
F-1358.9993643892856
s(I304
I3
tp192
F250.91182101513743
s(I9
I3
tp193
F10.016775390205172
s(I107
I3
tp194
F-0.6154253102851247
s(I194
I1
tp195
F-0.3717019775741577
s(I218
I2
tp196
F-673.8586378988721
s(I305
I2
tp197
F-1293.093855103825
s(I60
I2
tp198
F-3259.783114242582
s(I258
I3
tp199
F2194.9897565290203
s(I246
I1
tp200
F-0.7447163637408649
s(I14
I2
tp201
F-4070.8232514807587
s(I96
I2
tp202
F-15.398121782773321
s(I199
I2
tp203
F-1603.0984931444964
s(I223
I1
tp204
F-1.160698500592423
s(I50
I2
tp205
F-709.2170642578475
s(I260
I1
tp206
F42.14801210878968
s(I235
I2
tp207
F-2014.043333372941
s(I3
I1
tp208
F52.001288299386914
s(I188
I3
tp209
F167.79345809049434
s(I78
I1
tp210
F-0.9498373112986153
s(I102
I2
tp211
F-1288.980824837051
s(I189
I2
tp212
F-1262.8573669195944
s(I55
I1
tp213
F-0.9359338684521017
s(I142
I3
tp214
F2081.914576342974
s(I224
I3
tp215
F21.740556622666425
s(I288
I1
tp216
F8.996175871681437
s(I67
I2
tp217
F-1180.070252485628
s(I91
I1
tp218
F32.01398360896314
s(I265
I1
tp219
F2.436661878826935
s(I20
I3
tp220
F-0.6151113229081955
s(I21
I2
tp221
F-2487.920564193695
s(I119
I2
tp222
F-6604.605708708446
s(I230
I3
tp223
F3.827507278660985
s(I56
I3
tp224
F0.5924583939470424
s(I57
I2
tp225
F-15.500465492537645
s(I10
I3
tp226
F-0.9819651498838098
s(I108
I3
tp227
F0.6113230171513844
s(I81
I2
tp228
F-1401.1806597127522
s(I259
I3
tp229
F16.259829186591745
s(I225
I1
tp230
F-0.8939986932372027
s(I208
I1
tp231
F-0.8803162403721362
s(I185
I1
tp232
F-12.337391147912971
s(I4
I1
tp233
F-0.9998656584592875
s(I300
I2
tp234
F-3459.74066952712
s(I301
I3
tp235
F131.9668273819186
s(I40
I1
tp236
F-0.9945044290861408
s(I143
I3
tp237
F-0.5919266654640527
s(I17
I1
tp238
F-0.9995993926817859
s(I92
I1
tp239
F-0.9673063832458805
s(I266
I1
tp240
F-0.7295013261159335
s(I290
I2
tp241
F-1297.2092023263774
s(I69
I1
tp242
F838.0204326881714
s(I231
I3
tp243
F0.1580871499904785
s(I105
I1
tp244
F-0.9969597575154604
s(I271
I2
tp245
F-1067.6939971329866
s(I295
I1
tp246
F142.02176657960246
s(I11
I3
tp247
F-0.7355553954147082
s(I220
I2
tp248
F-557.7975164134923
s(I307
I2
tp249
F-1267.6428081138472
s(I260
I3
tp250
F5.43835110440018
s(I221
I3
tp251
F2.8032803024213515
s(I63
I3
tp252
F0.12206185511149761
s(I261
I2
tp253
F-29.94340033071987
s(I1
I3
tp254
F-0.9736393473617531
s(I186
I1
tp255
F-1294.6603441048917
s(I210
I2
tp256
F-1465.9616683757692
s(I297
I2
tp257
F-304.65005305897387
s(I52
I2
tp258
F-15.188644548116674
s(I53
I3
tp259
F-0.4210723962794974
s(I238
I1
tp260
F-0.8076718942945762
s(I6
I2
tp261
F-7861.959324942162
s(I191
I2
tp262
F-5301.213913998154
s(I215
I1
tp263
F-193.38415556868455
s(I302
I3
tp264
F158.0712578272598
s(I128
I3
tp265
F60.40231962155335
s(I89
I3
tp266
F-0.46570038526770574
s(I18
I1
tp267
F-1.000613645941789
s(I42
I2
tp268
F-15.763432509520023
s(I129
I2
tp269
F-15.071828139920001
s(I227
I2
tp270
F-1066.3421233790161
s(I251
I1
tp271
F-0.8953325673068478
s(I180
I3
tp272
F95.16233927816639
s(I70
I1
tp273
F95.99752051554309
s(I94
I2
tp274
F-2288.951327731904
s(I23
I2
tp275
F-1841.0041347344177
s(I47
I1
tp276
F-0.9942242191638804
s(I216
I3
tp277
F6.392371436506162
s(I106
I1
tp278
F6407.933580033146
s(I217
I2
tp279
F-1825.6895342345738
s(I59
I2
tp280
F-15.27338133055454
s(I83
I1
tp281
F96.007321216667
s(I257
I1
tp282
F-1.9469137209764757
s(I12
I3
tp283
F-0.872596525012763
s(I128
I1
tp284
F-0.9769931767788189
s(I13
I2
tp285
F-982.9720554529506
s(I222
I3
tp286
F67.66131889421375
s(I48
I3
tp287
F-0.20530168699562892
s(I272
I2
tp288
F-1742.1690541560001
s(I280
I1
tp289
F-0.9941465150409086
s(I54
I3
tp290
F-0.7230075531050597
s(I141
I1
tp291
F-0.993847836679471
s(I200
I1
tp292
F5.850205649734647
s(I303
I3
tp293
F157.99347929561677
s(I90
I3
tp294
F32.42583121474695
s(I252
I1
tp295
F-0.7095957059910454
s(I292
I2
tp296
F-3896.4332435809256
s(I293
I3
tp297
F832.59364237086
s(I9
I1
tp298
F29.999979471935482
s(I117
I2
tp299
F-2028.6765262629744
s(I84
I1
tp300
F-0.9988089900646265
s(I258
I1
tp301
F4.234107507279336
s(I282
I2
tp302
F-139.74579583960414
s(I120
I1
tp303
F-1067.8828142191828
s(I223
I3
tp304
F-0.09224329540849524
s(I263
I2
tp305
F-18.933910346763223
s(I287
I1
tp306
F21.412304558997516
s(I3
I3
tp307
F174.05033302490887
s(I212
I2
tp308
F-1656.173635786757
s(I299
I2
tp309
F-288.56271996998555
s(I213
I3
tp310
F9.042368856215786
s(I55
I3
tp311
F-0.3408115094573949
s(I142
I1
tp312
F-0.26847480207458707
s(I248
I2
tp313
F-203.83301991870286
s(I288
I3
tp314
F135.7040982379423
s(I249
I3
tp315
F1.5842200875713224
s(I91
I3
tp316
F-0.5047346150603232
s(I202
I2
tp317
F-1583.3277997786593
s(I289
I2
tp318
F-429.7695094368505
s(I44
I2
tp319
F-504.22930989748653
s(I131
I2
tp320
F-4147.519564945354
s(I155
I1
tp321
F25.10419553375908
s(I45
I3
tp322
F0.32502349436390426
s(I230
I1
tp323
F-0.9931934481572644
s(I254
I2
tp324
F-350.3786434794337
s(I80
I2
tp325
F-261.1272180117485
s(I183
I2
tp326
F-2567.754933803177
s(I207
I1
tp327
F-0.9567743628440466
s(I294
I3
tp328
F653.4714045825255
s(I81
I3
tp329
F2.0766331994104497
s(I10
I1
tp330
F-0.9996904286398864
s(I219
I2
tp331
F-2206.4235867856173
s(I243
I1
tp332
F-0.99549396592619
s(I15
I2
tp333
F-639.1000752748241
s(I39
I1
tp334
F-0.9671070512162003
s(I208
I3
tp335
F4.769207154455983
s(I193
I1
tp336
F-0.8988432057813608
s(I272
I1
tp337
F-1.2155263824343951
s(I201
I2
tp338
F-1640.3188755906092
s(I51
I2
tp339
F-2496.9158936867825
s(I4
I3
tp340
F-0.9819619815697705
s(I5
I2
tp341
F-6473.985053736934
s(I103
I2
tp342
F-531.1242506507422
s(I214
I3
tp343
F2.891085690096404
s(I301
I1
tp344
F16.377254632810864
s(I40
I3
tp345
F0.011275694419532167
s(I41
I2
tp346
F-225.20329170785558
s(I250
I3
tp347
F38.46917362258121
s(I92
I3
tp348
F270.3940941073376
s(I156
I1
tp349
F-0.9870459342729533
s(I46
I3
tp350
F-0.5493093861448601
s(I192
I1
tp351
F60.590056550482
s(I295
I3
tp352
F371.73663298048143
s(I82
I3
tp353
F0.0945741850147486
s(I156
I2
tp354
F-1258.0486830869647
s(I244
I1
tp355
F-0.9278889151186196
s(I221
I1
tp356
F-0.7770494570593947
s(I285
I3
tp357
F169.92258707582363
s(I1
I1
tp358
F179.9999727722307
s(I76
I1
tp359
F-0.9954339537188558
s(I274
I2
tp360
F-968.9861655440521
s(I53
I1
tp361
F-0.9908417616012429
s(I215
I3
tp362
F8.437485883970611
s(I302
I1
tp363
F18.170875395568228
s(I89
I1
tp364
F-0.9932079985940961
s(I279
I1
tp365
F162.1128409086007
s(I251
I3
tp366
F2.882669575868445
s(I204
I2
tp367
F-1702.9750544741833
s(I291
I2
tp368
F-277.3394212661185
s(I205
I3
tp369
F5.695723052881104
s(I47
I3
tp370
F10.280643479255202
s(I240
I2
tp371
F-4886.075562817585
s(I280
I3
tp372
F3.4796482640129223
s(I241
I3
tp373
F8.201110695691503
s(I83
I3
tp374
F1.2517837824799154
s(I194
I2
tp375
F-344.31237534484217
s(I281
I2
tp376
F-2251.1026285607823
s(I36
I2
tp377
F-628.0727910721033
s(I37
I3
tp378
F100.36489135199838
s(I222
I1
tp379
F-0.7696150246304884
s(I246
I2
tp380
F-87.64434583536789
s(I72
I2
tp381
F-15.136269475597047
s(I199
I1
tp382
F-65.56313697644953
s(I286
I3
tp383
F1002.058833166523
s(I211
I2
tp384
F-4504.343082283465
s(I235
I1
tp385
F108.10123759276944
s(I54
I1
tp386
F-0.9942176963649862
s(I78
I2
tp387
F-291.31298886239915
s(I7
I2
tp388
F-1384.000204824376
s(I200
I3
tp389
F8.7567241170997
s(I90
I1
tp390
F-0.99445172850093
s(I264
I1
tp391
F-0.42329448914143397
s(I43
I2
tp392
F-249.29410176038058
s(I67
I1
tp393
F133.98868297707222
s(I154
I3
tp394
F2.2877981620347363
s(I252
I3
tp395
F60.07925634224935
s(I253
I2
tp396
F-4913.819308496004
s(I95
I2
tp397
F-460.03316322342175
s(I119
I1
tp398
F-0.9824517818782463
s(I206
I3
tp399
F3.0942558620513867
s(I293
I1
tp400
F78.06762100174346
s(I242
I3
tp401
F15.848691555977497
s(I84
I3
tp402
F-0.47419685573683
s(I38
I3
tp403
F0.3239218201955124
s(I120
I3
tp404
F-0.7842888414956914
s(I229
I1
tp405
F-0.8864449822234347
s(I184
I1
tp406
F72.09568262125276
s(I237
I2
tp407
F-7316.91064252534
s(I236
I1
tp408
F-0.4448882616192214
s(I213
I1
tp409
F76.02278465703534
s(I277
I3
tp410
F18.121348025712212
s(I16
I1
tp411
F1026.027959447198
s(I249
I1
tp412
F-1.0135122977441886
s(I68
I1
tp413
F388.0054206158326
s(I155
I3
tp414
F0.11310076449578549
s(I266
I2
tp415
F-617.1882114651881
s(I45
I1
tp416
F194.00358905245517
s(I104
I1
tp417
F-0.9947424376120687
s(I207
I3
tp418
F3.1664012204228116
s(I294
I1
tp419
F743.3989621632707
s(I81
I1
tp420
F-0.9939437736144572
s(I271
I1
tp421
F-0.43216378163392055
s(I243
I3
tp422
F2.1093058174059958
s(I287
I3
tp423
F239.46027872756193
s(I196
I2
tp424
F-4139.248635721719
s(I283
I2
tp425
F-2119.6054281894635
s(I307
I1
tp426
F77.49201314409179
s(I197
I3
tp427
F39.182332548560424
s(I39
I3
tp428
F-0.6468884693922045
s(I232
I2
tp429
F-25.194198346080693
s(I272
I3
tp430
F14.51837819802458
s(I233
I3
tp431
F35.61187893772352
s(I186
I2
tp432
F-16.159158539647628
s(I273
I2
tp433
F-18.66280237342268
s(I214
I1
tp434
F-0.7489390138631418
s(I238
I2
tp435
F-1169.0624594567191
s(I64
I2
tp436
F-141.17835979807893
s(I167
I2
tp437
F-720.0635335564045
s(I191
I1
tp438
F-0.8790490529795385
s(I278
I3
tp439
F2.8352069503630055
s(I65
I3
tp440
F-0.613039065784785
s(I250
I1
tp441
F-0.6811517873954744
s(I18
I2
tp442
F-1475.000959990411
s(I116
I2
tp443
F-15.256597347350892
s(I203
I2
tp444
F-17.849677426033942
s(I227
I1
tp445
F-0.5933456376622877
s(I156
I3
tp446
F-0.31156399000811924
s(I117
I3
tp447
F10.965284561759114
s(I46
I1
tp448
F-0.9968200073777945
s(I70
I2
tp449
F-6286.6403881110045
s(I255
I2
tp450
F-19.115564728627497
s(I23
I1
tp451
F-0.9982270757291528
s(I192
I3
tp452
F21.903712583673453
s(I82
I1
tp453
F112.04447905419242
s(I106
I2
tp454
F-2789.521469619018
s(I193
I2
tp455
F-1811.8062169526636
s(I59
I1
tp456
F-0.8777236118196698
s(I244
I3
tp457
F9.499058826845186
s(I69
I2
tp458
F-3347.7463575310767
s(I245
I2
tp459
F-339.47608477397637
s(I198
I3
tp460
F7.57596827173891
s(I285
I1
tp461
F10.437738447911288
s(I276
I2
tp462
F-1085.814421195023
s(I284
I1
tp463
F6.903814375210782
s(I234
I3
tp464
F23.05251114170445
s(I76
I3
tp465
F-0.004968718705013317
s(I77
I2
tp466
F-5269.329744004332
s(I279
I3
tp467
F24.06504706648606
s(I66
I3
tp468
F-0.2637079932957361
s(I225
I2
tp469
F-1338.0699062391932
s(I228
I1
tp470
F-1.2585716750354643
s(I118
I3
tp471
F47.698647607555685
s(I205
I1
tp472
F1.5848098432733655
s(I269
I3
tp473
F15.22856975027669
s(I8
I1
tp474
F-0.997045651129908
s(I241
I1
tp475
F-0.5676035306172987
s(I168
I1
tp476
F-0.8363028250132345
s(I305
I3
tp477
F254.3332339631959
s(I60
I1
tp478
F-0.9736832056422201
s(I258
I2
tp479
F-248.86413554719718
s(I37
I1
tp480
F84.00835021524429
s(I96
I1
tp481
F-1.0009774271192677
s(I199
I3
tp482
F20.943384496594113
s(I286
I1
tp483
F1170.9416054173817
s(I263
I1
tp484
F1.5436042064452948
s(I235
I3
tp485
F10.568590105099744
s(I188
I2
tp486
F-16.58760053104259
s(I275
I2
tp487
F-16.418467886081356
s(I299
I1
tp488
F2.9318491397439983
s(I189
I3
tp489
F4.090587045894258
s(I142
I2
tp490
F-1274.8341526400886
s(I224
I2
tp491
F-5246.474672463589
s(I264
I3
tp492
F4.098441664310075
s(I225
I3
tp493
F6.819504397869802
s(I67
I3
tp494
F0.06129120749664912
s(I154
I1
tp495
F-0.9850962362894666
s(I265
I2
tp496
F-1120.5141278729552
s(I20
I2
tp497
F-759.1925763509765
s(I131
I1
tp498
F-0.9966201850754556
s(I21
I3
tp499
F-0.5661627188855091
s(I119
I3
tp500
F46.28397752222108
s(I206
I1
tp501
F-0.901135493145537
s(I230
I2
tp502
F-559.0055777789559
s(I56
I2
tp503
F-1794.0365313397906
s(I183
I1
tp504
F97.00903714929504
s(I270
I3
tp505
F-4.002333708078669
s(I57
I3
tp506
F10.76757256779627
s(I242
I1
tp507
F-0.8907192723687161
s(I10
I2
tp508
F-15.008260052537414
s(I108
I2
tp509
F-1202.900639949468
s(I195
I2
tp510
F-218.09465029665924
s(I219
I1
tp511
F-0.8354243927915708
s(I306
I3
tp512
F317.09104910791456
s(I38
I1
tp513
F359.99810715263214
s(I247
I2
tp514
F-1491.895730563355
s(I15
I1
tp515
F-0.7135421252687714
s(I184
I3
tp516
F49.760973152522965
s(I260
I2
tp517
F-333.24585064614814
s(I185
I2
tp518
F-379.43155571434187
s(I268
I1
tp519
F-0.890338089549747
s(I51
I1
tp520
F-0.9678996247776231
s(I236
I3
tp521
F5.041220904350229
s(I300
I1
tp522
F97.84163401048882
s(I79
I2
tp523
F-15.239827142438678
s(I103
I1
tp524
F78.02361257114111
s(I190
I3
tp525
F13.538178518871613
s(I277
I1
tp526
F-0.8614892051841232
s(I16
I3
tp527
F2018.9080573912574
s(I17
I2
tp528
F-962.0776570520204
s(I115
I2
tp529
F-512.1958647475182
s(I226
I3
tp530
F8.630569114888402
s(I68
I3
tp531
F1.5717915752051572
s(I132
I1
tp532
F-0.998382762723721
s(I22
I3
tp533
F-0.8515389001511204
s(I104
I3
tp534
F10.46279854921869
s(I105
I2
tp535
F-16.301161862558875
s(I271
I3
tp536
F120.63516089677232
s(I58
I3
tp537
F1205.6146705026424
s(I144
I2
tp538
F-2030.9439655651263
s(I220
I1
tp539
F-0.9153218020803826
s(I307
I3
tp540
F335.00164231596966
s(I197
I1
tp541
F-0.5987489575936107
s(I261
I3
tp542
F80.4409359210967
s(I241
I2
tp543
F-2338.569754881955
s(I233
I1
tp544
F539.3174618641453
s(I297
I3
tp545
F27.194424489825725
s(I52
I1
tp546
F-0.9567381762251114
s(I191
I3
tp547
F9.723848238666749
s(I278
I1
tp548
F-0.8841372550297482
s(I302
I2
tp549
F-131.88904693600958
s(I128
I2
tp550
F-1077.0200214922702
s(I129
I3
tp551
F-0.6729778158747123
s(I227
I3
tp552
F-98.41802436358519
s(I180
I2
tp553
F-2186.369913114832
s(I267
I2
tp554
F-339.66173058251667
s(I291
I1
tp555
F23.676735181422828
s(I23
I3
tp556
F-0.9170867060170246
s(I216
I2
tp557
F-1587.5354345758656
s(I256
I3
tp558
F3.0544520440037934
s(I217
I3
tp559
F6.238854171491753
s(I59
I3
tp560
F-1.352727387666806
s(I257
I2
tp561
F-563.9568192473226
s(I12
I2
tp562
F-111.02334371446895
s(I13
I3
tp563
F718.0400296912738
s(I198
I1
tp564
F-1.9089012096488684
s(I222
I2
tp565
F-11388.689789488802
s(I48
I2
tp566
F-1493.0430078065476
s(I262
I3
tp567
F1302.167381375915
s(I234
I1
tp568
F1.3511368204586662
s(I187
I2
tp569
F-18.199055771242794
s(I211
I1
tp570
F-0.9465783768151874
s(I298
I3
tp571
F66.93602580474584
s(I54
I2
tp572
F-3622.8483919987334
s(I141
I2
tp573
F-472.0483682272163
s(I239
I2
tp574
F-6321.457719370477
s(I7
I1
tp575
F-1.000252000977326
s(I66
I1
tp576
F-0.9752880766804146
s(I90
I2
tp577
F-1636.9575297428275
s(I19
I2
tp578
F-1925.9747492471138
s(I43
I1
tp579
F-0.9821487861711046
s(I130
I3
tp580
F1.4755042523738997
s(I228
I3
tp581
F15.776281390172974
s(I118
I1
tp582
F2981.57670428427
s(I292
I1
tp583
F-82.25441230585669
s(I71
I2
tp584
F-7831.429866063081
s(I95
I1
tp585
F124.01610545123583
s(I182
I3
tp586
F-0.6832907254464577
s(I269
I1
tp587
F-0.9398449778060288
s(I8
I3
tp588
F-0.8530577468496133
s(I9
I2
tp589
F-3211.9967837428635
s(I107
I2
tp590
F-2805.8689865560905
s(I218
I3
tp591
F8.63143133866216
s(I305
I1
tp592
F42.52289015738594
s(I60
I3
tp593
F-0.6799355415769001
s(I65
I1
tp594
F-0.9689982576424366
s(I14
I3
tp595
F-0.40731197884751874
s(I96
I3
tp596
F-0.4307042120698136
s(I280
I2
tp597
F-772.4007884277329
s(I263
I3
tp598
F-11.95631458426848
s(I50
I3
tp599
F-0.7548594533920567
s(I212
I1
tp600
F-0.8568758528387247
s(I299
I3
tp601
F86.81948437168244
s(I102
I3
tp602
F10.74982369309954
s(I189
I1
tp603
F-0.8020994245596593
s(I248
I1
tp604
F-0.40304496198725986
s(I288
I2
tp605
F-1302.0843498548452
s(I289
I3
tp606
F158.60601081340545
s(I44
I1
tp607
F-2755.715023717837
s(I131
I3
tp608
F-0.6020749884025562
s(I21
I1
tp609
F-0.999849311384336
s(I80
I1
tp610
F-0.9905856909180955
s(I183
I3
tp611
F1.1585811262931172
s(I270
I1
tp612
F-1.1604953495199877
s(I294
I2
tp613
F-1241.300575808809
s(I57
I1
tp614
F68.02316607587194
s(I117
I1
tp615
F242.06775400443271
s(I219
I3
tp616
F30.62053052556853
s(I306
I1
tp617
F66.42877820335188
s(I259
I2
tp618
F-3201.397873795023
s(I283
I1
tp619
F20.698702424881603
s(I15
I3
tp620
F-0.8287434670315939
s(I208
I2
tp621
F-553.1650615669006
s(I209
I3
tp622
F5.593153944455973
s(I51
I3
tp623
F171.44358054909262
s(I4
I2
tp624
F-1264.99649668729
s(I300
I3
tp625
F142.42284180345925
s(I5
I3
tp626
F10.03067690453746
s(I103
I3
tp627
F-0.5009512595663298
s(I190
I1
tp628
F-0.7701495427616133
s(I214
I2
tp629
F-1157.89510922645
s(I301
I2
tp630
F-491.6910964433118
s(I40
I2
tp631
F-2329.93554269579
s(I143
I2
tp632
F-388.11333097980616
s(I167
I1
tp633
F-0.9952457221286911
s(I41
I3
tp634
F-0.2404161687488839
s(I226
I1
tp635
F-0.9011125044745177
s(I250
I2
tp636
F-483.5105449632049
s(I92
I2
tp637
F-323.10360516607847
s(I203
I1
tp638
F-0.8181571662583194
s(I290
I3
tp639
F109.38332817432692
s(I132
I3
tp640
F-0.7109398808717666
s(I93
I3
tp641
F94.46319191051391
s(I22
I1
tp642
F76.00936507150256
s(I46
I2
tp643
F-857.3550357629622
s(I231
I2
tp644
F-1877.1407875292202
s(I255
I1
tp645
F-0.9112055011117158
s(I168
I3
tp646
F1905.521571843622
s(I58
I1
tp647
F-0.8934620690400483
s(I82
I2
tp648
F-6379.517616717073
s(I11
I2
tp649
F-554.1173215702081
s(I220
I3
tp650
F14.36295216083581
s(I221
I2
tp651
F-775.7667947534103
s(I63
I2
tp652
F-77.27824926113598
s(I261
I1
tp653
F-0.515027426641679
s(I264
I2
tp654
F-4008.6100569389223
s(I1
I2
tp655
F-276.0019988800105
s(I209
I2
tp656
F-6163.745928114977
s(I210
I3
tp657
F11.291612568301657
s(I297
I1
tp658
F0.09606946053491743
s(I52
I3
tp659
F10.499407070846408
s(I53
I2
tp660
F-1360.0347580941716
s(I6
I3
tp661
F159.01285573162667
s(I89
I2
tp662
F-6699.451742942274
s(I42
I3
tp663
F-0.3980638799593221
s(I129
I1
tp664
F-0.9491171745105573
s(I204
I1
tp665
F-0.8496890328461891
s(I291
I3
tp666
F298.40362599181634
s(I94
I3
tp667
F-0.2928062615329985
s(I240
I1
tp668
F172.04667351288384
s(I217
I1
tp669
F-0.9406558171019085
s(I281
I3
tp670
F12.64330683290086
s(I36
I1
tp671
F-0.9886483506285276
s(I13
I1
tp672
F102.01597393310395
s(I72
I1
tp673
F-0.9816690672749854
s(I262
I1
tp674
F2.8048615783312836
s(I286
I2
tp675
F-539.7059200936271
s(I211
I3
tp676
F2.417725869818768
s(I298
I1
tp677
F2.487255224455112
s(I275
I1
tp678
F1123.9847745491154
s.