(dp0
(I7
I3
tp1
F-0.9270027720467987
s(I200
I2
tp2
F-99.24884375062126
s(I303
I2
tp3
F-1051.7493879111025
s(I201
I3
tp4
F-3.965246932938729
s(I43
I3
tp5
F-1.200384396806328
s(I130
I1
tp6
F338.2807519568876
s(I154
I2
tp7
F-162.44959534771132
s(I252
I2
tp8
F-294.8431101877775
s(I292
I3
tp9
F-4.865782731304244
s(I253
I3
tp10
F-3.233229660653394
s(I95
I3
tp11
F-1.4485963575154361
s(I182
I1
tp12
F-0.9655886085064642
s(I206
I2
tp13
F-39.06315276122257
s(I293
I2
tp14
F-884.216555697666
s(I218
I1
tp15
F-24.402179375290437
s(I242
I2
tp16
F-304.51822848257035
s(I84
I2
tp17
F-438.9564434909022
s(I195
I1
tp18
F35.55332665934844
s(I282
I3
tp19
F-52.07640268601618
s(I14
I1
tp20
F-1.0405860420304929
s(I38
I2
tp21
F-836.6786949380254
s(I120
I2
tp22
F-152.28895110023768
s(I223
I2
tp23
F-646.7691990610679
s(I247
I1
tp24
F102.81880301443867
s(I50
I1
tp25
F0.8842485146551641
s(I256
I1
tp26
F8.47171725431308
s(I3
I2
tp27
F-15.118622217722193
s(I212
I3
tp28
F1.1412805330755975
s(I102
I1
tp29
F0.12915690706085783
s(I213
I2
tp30
F-558.9384681222318
s(I55
I2
tp31
F-518.4105417070415
s(I79
I1
tp32
F484.577540731401
s(I248
I3
tp33
F-3.003149069885568
s(I249
I2
tp34
F-932.026142112098
s(I91
I2
tp35
F-277.2258005074767
s(I115
I1
tp36
F-0.9731918830257302
s(I202
I3
tp37
F-3.682529580303298
s(I289
I1
tp38
F206.55878937940818
s(I44
I3
tp39
F-0.49471765505170767
s(I45
I2
tp40
F-354.1388434530063
s(I254
I3
tp41
F-3.2491436349043927
s(I80
I3
tp42
F-323.23928248072224
s(I144
I1
tp43
F0.012173313837030344
s(I93
I2
tp44
F-16.54830381868658
s(I196
I1
tp45
F27.89405495354005
s(I283
I3
tp46
F-45.569523279895286
s(I237
I1
tp47
F0.48680957028044725
s(I232
I1
tp48
F-1.5893361052329988
s(I272
I2
tp49
F-127.68316164553923
s(I273
I3
tp50
F-1.3142468242480283
s(I5
I1
tp51
F109.19515287562798
s(I64
I1
tp52
F-0.9892251873281863
s(I167
I3
tp53
F309.1689995192692
s(I278
I2
tp54
F-6448.402907413059
s(I41
I1
tp55
F-0.8958203034755802
s(I116
I1
tp56
F-1.0554478147350128
s(I203
I3
tp57
F0.3885137969054837
s(I290
I1
tp58
F14.372327343457748
s(I156
I2
tp59
F-617.0955134460372
s(I267
I1
tp60
F3.121454012749574
s(I255
I3
tp61
F-9.302374745474614
s(I192
I2
tp62
F-95.03117767671922
s(I295
I2
tp63
F-4011.8849738637264
s(I193
I3
tp64
F7.9200307113714015
s(I244
I2
tp65
F-109.95476360087845
s(I284
I3
tp66
F-65.77559409132824
s(I245
I3
tp67
F-1.8454795052268145
s(I198
I2
tp68
F-583.4837789599673
s(I285
I2
tp69
F-892.7113289854954
s(I210
I1
tp70
F6.604238412167267
s(I234
I2
tp71
F-1089.2039115540322
s(I76
I2
tp72
F-5859.158176323738
s(I187
I1
tp73
F13.008252318589454
s(I274
I3
tp74
F0.2908338531371134
s(I77
I3
tp75
F2.0310857440675765
s(I6
I1
tp76
F-1.000018907167517
s(I215
I2
tp77
F-83.70657441305012
s(I239
I1
tp78
F-2.3474734712475
s(I42
I1
tp79
F-0.9944595239419689
s(I66
I2
tp80
F-950.9329906983684
s(I251
I2
tp81
F-54.865004705374524
s(I19
I1
tp82
F400.35978934357837
s(I204
I3
tp83
F-2712.6651289344622
s(I94
I1
tp84
F-0.6208636340327799
s(I118
I2
tp85
F-550.2589319896706
s(I205
I2
tp86
F-970.8367498744353
s(I47
I2
tp87
F-402.6155975909222
s(I71
I1
tp88
F505.2979648625182
s(I240
I3
tp89
F-217.29407495951511
s(I241
I2
tp90
F-594.9000952830575
s(I83
I2
tp91
F-165.54552627337495
s(I107
I1
tp92
F-0.9910371344388289
s(I194
I3
tp93
F4.826301580914633
s(I281
I1
tp94
F-16.480784663901392
s(I36
I3
tp95
F164.2408334892093
s(I132
I2
tp96
F-334.14160371605567
s(I37
I2
tp97
F-3186.066333989218
s(I246
I3
tp98
F13.884970414184039
s(I72
I3
tp99
F175.09566529000116
s(I284
I2
tp100
F-1938.0014547131511
s(I292
I1
tp101
F57.982601844948675
s(I188
I1
tp102
F22.454999303759493
s(I275
I3
tp103
F686.5801086524747
s(I78
I3
tp104
F-0.37431449790124965
s(I224
I1
tp105
F31.73701391683241
s(I201
I1
tp106
F41.50402831641822
s(I265
I3
tp107
F106.73365658249841
s(I20
I1
tp108
F-0.7929968741536905
s(I253
I1
tp109
F598.5349009207706
s(I56
I1
tp110
F219.4907135345864
s(I270
I2
tp111
F-183.4642065732124
s(I168
I2
tp112
F-1673.392622862501
s(I108
I1
tp113
F-0.6916115903087705
s(I195
I3
tp114
F-17.461637471902616
s(I282
I1
tp115
F302.15223245063
s(I306
I2
tp116
F-1599.8808122951025
s(I259
I1
tp117
F-0.9758031650531247
s(I247
I3
tp118
F-18.221284424901427
s(I184
I2
tp119
F-24.921667199053637
s(I287
I2
tp120
F-1241.8535235810984
s(I185
I3
tp121
F150.96019896164918
s(I236
I2
tp122
F-371.7261751374035
s(I276
I3
tp123
F2.8251934893406787
s(I237
I3
tp124
F365.67979477674396
s(I79
I3
tp125
F-1.2406784779782334
s(I190
I2
tp126
F-1086.2653887002457
s(I277
I2
tp127
F-50.787336617379616
s(I16
I2
tp128
F-453.22031179401716
s(I143
I1
tp129
F0.07055458681278973
s(I17
I3
tp130
F-1.25380615806306
s(I115
I3
tp131
F-0.7330877878414621
s(I202
I1
tp132
F87.96506676651424
s(I226
I2
tp133
F-322.75976123154703
s(I68
I2
tp134
F-366.06414722816294
s(I155
I2
tp135
F-474.63955448164626
s(I266
I3
tp136
F75.02170105900139
s(I69
I3
tp137
F-1.3486760245450373
s(I254
I1
tp138
F427.45969233415786
s(I22
I2
tp139
F-575.0950367813027
s(I104
I2
tp140
F-3844.174029614098
s(I207
I2
tp141
F-235.94973609773928
s(I231
I1
tp142
F-0.06914428010651726
s(I144
I3
tp143
F-8.107037943420647
s(I105
I3
tp144
F534.1224759500112
s(I58
I2
tp145
F-438.0359212987826
s(I243
I2
tp146
F-3434.5620076459777
s(I11
I1
tp147
F2588.777298134187
s(I196
I3
tp148
F-7.007186674724945
s(I260
I1
tp149
F10.584308319538339
s(I39
I2
tp150
F-5046.862431889515
s(I63
I1
tp151
F-0.9559882687979571
s(I232
I3
tp152
F-0.10876583870899866
s(I205
I1
tp153
F2.7262829458095337
s(I233
I2
tp154
F-221.13162840294237
s(I276
I1
tp155
F-0.9350014052085236
s(I186
I3
tp156
F608.1245197278386
s(I273
I1
tp157
F-113.85141621987643
s(I238
I3
tp158
F-2.917836087563927
s(I64
I3
tp159
F-0.03234704803862324
s(I128
I1
tp160
F-2256.445751572874
s(I18
I3
tp161
F-0.936744324929959
s(I116
I3
tp162
F-0.5390014530029028
s(I117
I2
tp163
F-7546.414566912956
s(I267
I3
tp164
F-6.4419261452447625
s(I70
I3
tp165
F-2.2899918754070394
s(I216
I1
tp166
F8.831379933490727
s(I106
I3
tp167
F330.7570934977223
s(I256
I2
tp168
F-1898.0013536140434
s(I257
I3
tp169
F-0.3109407135826365
s(I12
I1
tp170
F-0.3013613186502763
s(I263
I3
tp171
F-2623.334296660856
s(I245
I1
tp172
F14.922186937912736
s(I241
I1
tp173
F-1.2919988287176647
s(I48
I1
tp174
F0.09487653462518775
s(I262
I2
tp175
F-269.76018001242824
s(I187
I3
tp176
F-5.521624005921524
s(I274
I1
tp177
F-33.66806252580495
s(I298
I2
tp178
F-393.39158938809135
s(I77
I1
tp179
F2365.5876309346195
s(I141
I3
tp180
F-23.343845517989898
s(I239
I3
tp181
F5.007629297129189
s(I279
I2
tp182
F-190.45784051834877
s(I303
I1
tp183
F43.78028060292374
s(I19
I3
tp184
F-1.0970430902520092
s(I130
I2
tp185
F-159.99683700707936
s(I228
I2
tp186
F-4041.2476751953013
s(I268
I3
tp187
F-0.20741852414751435
s(I229
I3
tp188
F-2.531808874290678
s(I71
I3
tp189
F-1.0381881805311177
s(I182
I2
tp190
F-310.096744525245
s(I269
I2
tp191
F-46.39968248778994
s(I8
I2
tp192
F-725.1137298412002
s(I304
I3
tp193
F68.85136055112358
s(I9
I3
tp194
F-1.0064746831904043
s(I107
I3
tp195
F-0.28407093104559034
s(I194
I1
tp196
F-0.4358170923998146
s(I218
I2
tp197
F-38.41231350538056
s(I305
I2
tp198
F-1362.0562232473806
s(I60
I2
tp199
F-390.59712081020547
s(I258
I3
tp200
F-4.256412236613366
s(I246
I1
tp201
F-0.7556347792279328
s(I14
I2
tp202
F-126.59689107679638
s(I96
I2
tp203
F-5576.75567405875
s(I199
I2
tp204
F-199.80590738812822
s(I223
I1
tp205
F1.6702530727737392
s(I50
I2
tp206
F-493.2021420257211
s(I197
I2
tp207
F-6453.637730319923
s(I235
I2
tp208
F-1132.8395096379775
s(I3
I1
tp209
F520.0867922477721
s(I188
I3
tp210
F-8.653841412604034
s(I300
I1
tp211
F13.5242771909817
s(I78
I1
tp212
F1156.5107504915159
s(I102
I2
tp213
F-364.879074711476
s(I189
I2
tp214
F-273.65389625980447
s(I55
I1
tp215
F0.22067873263620547
s(I142
I3
tp216
F166.9190733773429
s(I224
I3
tp217
F-3.4139777709576586
s(I288
I1
tp218
F423.40370852373394
s(I67
I2
tp219
F-509.2354933480901
s(I91
I1
tp220
F240.6054057989675
s(I265
I1
tp221
F350.7795080617924
s(I20
I3
tp222
F-1.050378633973733
s(I21
I2
tp223
F-284.9962643596401
s(I119
I2
tp224
F-18.802003779631843
s(I230
I3
tp225
F-5.10869905666769
s(I56
I3
tp226
F-0.8120524848608618
s(I57
I2
tp227
F-1348.696934943899
s(I10
I3
tp228
F-0.8848012580222476
s(I108
I3
tp229
F-2.880348774105319
s(I81
I2
tp230
F-3033.1479117769804
s(I259
I3
tp231
F1.9807571982332894
s(I225
I1
tp232
F292.27858452030983
s(I208
I1
tp233
F-0.8726857978357786
s(I185
I1
tp234
F-0.5510159771812532
s(I4
I1
tp235
F-0.9997811589057443
s(I300
I2
tp236
F-522.8873927960698
s(I301
I3
tp237
F222.59476229160524
s(I40
I1
tp238
F2.194284358613027
s(I143
I3
tp239
F-1.1054238869326942
s(I17
I1
tp240
F722.9833004977198
s(I92
I1
tp241
F-0.7911299888620829
s(I266
I1
tp242
F-0.790256245437936
s(I290
I2
tp243
F-1396.4450419066332
s(I69
I1
tp244
F322.0309181685087
s(I231
I3
tp245
F242.521070081344
s(I105
I1
tp246
F-0.8665689325708751
s(I271
I2
tp247
F-6918.591697368573
s(I295
I1
tp248
F485.9944837584348
s(I11
I3
tp249
F-0.5653967440458931
s(I220
I2
tp250
F-5211.196729093641
s(I307
I2
tp251
F-2773.3645686268537
s(I260
I3
tp252
F-3.636620182369619
s(I221
I3
tp253
F312.57068259579523
s(I63
I3
tp254
F109.8228838726611
s(I261
I2
tp255
F-2786.872387547317
s(I1
I3
tp256
F-1.0097250510211102
s(I186
I1
tp257
F21.769090961756415
s(I210
I2
tp258
F-38.93111652507273
s(I297
I2
tp259
F-421.27636843237633
s(I52
I2
tp260
F-2403.998807851986
s(I53
I3
tp261
F89.44294197524131
s(I238
I1
tp262
F22.916525347595396
s(I6
I2
tp263
F-444.050856349883
s(I191
I2
tp264
F-262.3113343865715
s(I215
I1
tp265
F104.64131729702997
s(I302
I3
tp266
F483.1615896921847
s(I128
I3
tp267
F149.997730538103
s(I89
I3
tp268
F563.9871440691617
s(I18
I1
tp269
F-1.2626471623357904
s(I42
I2
tp270
F-660.7124882567625
s(I129
I2
tp271
F-527.1493463618791
s(I227
I2
tp272
F-4196.977569305863
s(I251
I1
tp273
F36.8808373540781
s(I180
I3
tp274
F397.75200149302697
s(I70
I1
tp275
F0.32500818198922055
s(I94
I2
tp276
F-759.0291405135102
s(I23
I2
tp277
F-177.38284176896312
s(I47
I1
tp278
F-0.8999625941045251
s(I216
I3
tp279
F-4.054766218218342
s(I106
I1
tp280
F-0.937799153185914
s(I280
I1
tp281
F2.222825660996246
s(I59
I2
tp282
F-733.9619915997818
s(I83
I1
tp283
F-0.9746751065389755
s(I257
I1
tp284
F-0.7186074301651235
s(I12
I3
tp285
F-30.872029601208517
s(I65
I2
tp286
F-263.3497181877833
s(I13
I2
tp287
F-720.3219631861128
s(I222
I3
tp288
F182.61926901171952
s(I48
I3
tp289
F-531.1716694716052
s(I209
I1
tp290
F3.864237555204476
s(I217
I2
tp291
F-2450.8341205484066
s(I54
I3
tp292
F-2.736786238980396
s(I141
I1
tp293
F-0.5261419251603864
s(I200
I1
tp294
F32.899004900032736
s(I303
I3
tp295
F224.15422644229412
s(I90
I3
tp296
F-1934.4941733461044
s(I252
I1
tp297
F24.581254695901652
s(I229
I1
tp298
F304.8339357912583
s(I293
I3
tp299
F-66.40025725445238
s(I9
I1
tp300
F-0.9530003172966139
s(I180
I1
tp301
F16.652356307785922
s(I84
I1
tp302
F-0.9752191224845048
s(I258
I1
tp303
F17.11825203943442
s(I282
I2
tp304
F-1998.9825423833151
s(I120
I1
tp305
F-0.9865242856985138
s(I223
I3
tp306
F254.27376362417556
s(I263
I2
tp307
F-2814.742704881313
s(I287
I1
tp308
F398.23633010111786
s(I3
I3
tp309
F-1.0663696282802992
s(I212
I2
tp310
F-375.60403097667637
s(I299
I2
tp311
F-575.1095762715737
s(I213
I3
tp312
F-60.86671689287248
s(I55
I3
tp313
F-1.6339368450632399
s(I142
I1
tp314
F-0.9570197737955555
s(I248
I2
tp315
F-579.8887196507025
s(I288
I3
tp316
F16.2231748782253
s(I249
I3
tp317
F-7.176911417544889
s(I91
I3
tp318
F-1.186524504681561
s(I202
I2
tp319
F-631.0246142890783
s(I289
I2
tp320
F-1128.8404814344779
s(I44
I2
tp321
F-396.6125221077875
s(I131
I2
tp322
F-1251.1551229990766
s(I155
I1
tp323
F1.9741401780928682
s(I45
I3
tp324
F426.05939512341473
s(I230
I1
tp325
F35.15211956090262
s(I254
I2
tp326
F-771.7032068436374
s(I80
I2
tp327
F-1641.1691625668543
s(I183
I2
tp328
F-27.38705550309624
s(I207
I1
tp329
F22.071014197240597
s(I294
I3
tp330
F131.3017615834978
s(I81
I3
tp331
F-1.0585758881563687
s(I10
I1
tp332
F-329.97494283711046
s(I219
I2
tp333
F-534.7569742700597
s(I243
I1
tp334
F497.8284125850118
s(I15
I2
tp335
F-119.71880993085699
s(I39
I1
tp336
F4505.675831441997
s(I208
I3
tp337
F9.168326159831432
s(I193
I1
tp338
F-0.6225967769408909
s(I209
I2
tp339
F-1713.5692894435638
s(I201
I2
tp340
F-267.60743281052925
s(I51
I2
tp341
F-525.5439683917675
s(I4
I3
tp342
F15.06744142746163
s(I5
I2
tp343
F-2120.1540581320305
s(I103
I2
tp344
F-34.90241048121131
s(I214
I3
tp345
F-3.420198428172239
s(I301
I1
tp346
F24.305230454941704
s(I40
I3
tp347
F-1.2494106775381864
s(I41
I2
tp348
F-5516.463891670821
s(I250
I3
tp349
F242.83856334073636
s(I92
I3
tp350
F281.387584434309
s(I156
I1
tp351
F-0.8427476118947065
s(I46
I3
tp352
F-1.2914630570391183
s(I192
I1
tp353
F28.60070939575859
s(I295
I3
tp354
F330.33592117180194
s(I82
I3
tp355
F-1.1004583325458959
s(I93
I1
tp356
F-0.980400954952055
s(I244
I1
tp357
F19.194159675191276
s(I221
I1
tp358
F0.25434911983866076
s(I285
I3
tp359
F35.23661136301641
s(I1
I1
tp360
F-0.928346545237371
s(I76
I1
tp361
F-0.21513898187634098
s(I274
I2
tp362
F-33.24736283521879
s(I53
I1
tp363
F-0.9715915811332453
s(I215
I3
tp364
F-2.0133740098338877
s(I302
I1
tp365
F84.83166235810448
s(I89
I1
tp366
F-0.8595182279028694
s(I279
I1
tp367
F383.06307511315475
s(I251
I3
tp368
F-5.570407885663119
s(I204
I2
tp369
F-608.6642820805688
s(I291
I2
tp370
F-1016.1011486191194
s(I205
I3
tp371
F-5.595832704431066
s(I47
I3
tp372
F528.2762033110291
s(I240
I2
tp373
F-173.96727835965936
s(I280
I3
tp374
F-2.882134731321315
s(I241
I3
tp375
F-6.577049022833013
s(I83
I3
tp376
F-0.17979967702447258
s(I194
I2
tp377
F-781.3747311012148
s(I281
I2
tp378
F-145.73647990932378
s(I36
I2
tp379
F-4478.771410126496
s(I37
I3
tp380
F-0.7857041642780135
s(I222
I1
tp381
F-0.22342770108907717
s(I246
I2
tp382
F-276.06792929712003
s(I72
I2
tp383
F-21.875589800344304
s(I199
I1
tp384
F20.506727692981663
s(I286
I3
tp385
F-164.943126425456
s(I211
I2
tp386
F-220.51572170278914
s(I235
I1
tp387
F-0.9939463572136763
s(I54
I1
tp388
F0.9728989561545706
s(I78
I2
tp389
F-1025.7149041241084
s(I7
I2
tp390
F-3057.138623089823
s(I200
I3
tp391
F-9.52779400217635
s(I90
I1
tp392
F728.5608155932567
s(I264
I1
tp393
F9.988356745697507
s(I43
I2
tp394
F-754.4512236491462
s(I67
I1
tp395
F172.6445634721662
s(I154
I3
tp396
F1876.9532732232665
s(I252
I3
tp397
F-4.936369041900534
s(I253
I2
tp398
F-675.8762092856066
s(I95
I2
tp399
F-585.6812678007942
s(I119
I1
tp400
F-0.9489431147661547
s(I206
I3
tp401
F-2.404369588637743
s(I293
I1
tp402
F233.93104435581213
s(I242
I3
tp403
F261.90511628219843
s(I84
I3
tp404
F0.12448543536326372
s(I38
I3
tp405
F-1.2136704683291364
s(I120
I3
tp406
F10.419461041098803
s(I292
I2
tp407
F-749.5069425874052
s(I184
I1
tp408
F4.625530627476632
s(I287
I3
tp409
F-124.4406615481568
s(I236
I1
tp410
F-0.737127180223779
s(I213
I1
tp411
F17.96154058022231
s(I277
I3
tp412
F-15.259582269484277
s(I16
I1
tp413
F-1.0209154582644644
s(I249
I1
tp414
F20.71827387924415
s(I68
I1
tp415
F-0.952334996103383
s(I155
I3
tp416
F324.22723304716243
s(I266
I2
tp417
F-790.0261192572003
s(I45
I1
tp418
F-0.847010721308597
s(I104
I1
tp419
F359.71493137598657
s(I207
I3
tp420
F-13.600494827924193
s(I294
I1
tp421
F684.5160341757861
s(I144
I2
tp422
F-1877.0321867428822
s(I271
I1
tp423
F448.90666738884784
s(I243
I3
tp424
F228.42970705612257
s(I196
I2
tp425
F-832.0113752256555
s(I283
I2
tp426
F-1273.7969238386595
s(I307
I1
tp427
F500.8214301814079
s(I197
I3
tp428
F-3.9354417439454528
s(I39
I3
tp429
F138.4041128604361
s(I232
I2
tp430
F-303.52747867452234
s(I272
I3
tp431
F463.96753367100075
s(I233
I3
tp432
F-4.5356369632469455
s(I186
I2
tp433
F-111.82071256699957
s(I273
I2
tp434
F-599.4010220655608
s(I214
I1
tp435
F8.445376997603377
s(I238
I2
tp436
F-307.4125209274508
s(I64
I2
tp437
F-89.6605262264179
s(I167
I2
tp438
F-10267.638278742746
s(I191
I1
tp439
F2.477486576391986
s(I278
I3
tp440
F-5.125426804100013
s(I65
I3
tp441
F-1.2697486500342112
s(I250
I1
tp442
F-0.012739450696588394
s(I18
I2
tp443
F-39.453916946934804
s(I116
I2
tp444
F-112.19860103059825
s(I203
I2
tp445
F-273.31883519703376
s(I227
I1
tp446
F13.488942146103039
s(I156
I3
tp447
F-1.521364319084462
s(I117
I3
tp448
F233.85207739736296
s(I46
I1
tp449
F-0.017915797786982608
s(I70
I2
tp450
F-16.391767959378413
s(I255
I2
tp451
F-236.59884733697803
s(I23
I1
tp452
F299.6682685485721
s(I192
I3
tp453
F-1119.0149788954575
s(I82
I1
tp454
F228.5721737178277
s(I106
I2
tp455
F-255.64730309343614
s(I193
I2
tp456
F-1005.7500661393143
s(I59
I1
tp457
F-0.621186856772303
s(I244
I3
tp458
F-10.468126600730875
s(I132
I1
tp459
F-0.3388296148492505
s(I245
I2
tp460
F-932.6677669707633
s(I198
I3
tp461
F-1.7911917414862277
s(I285
I1
tp462
F16.921004678661244
s(I276
I2
tp463
F-180.9231043675321
s(I284
I1
tp464
F222.96750492069057
s(I234
I3
tp465
F-12.881328406636925
s(I76
I3
tp466
F-1.137729568535993
s(I77
I2
tp467
F-5581.35148321715
s(I279
I3
tp468
F-6.040342599419639
s(I66
I3
tp469
F-0.9430641770632505
s(I228
I1
tp470
F-0.9085777966155526
s(I118
I3
tp471
F2.089590049542992
s(I268
I2
tp472
F-3574.1701478861664
s(I269
I3
tp473
F117.67734743558026
s(I8
I1
tp474
F-0.884253665946551
s(I304
I2
tp475
F-1453.3384945480957
s(I168
I1
tp476
F1.7342171621998048
s(I305
I3
tp477
F188.9055063477975
s(I60
I1
tp478
F-809.8058192366797
s(I258
I2
tp479
F-244.20969987193092
s(I37
I1
tp480
F-0.8876907416626092
s(I96
I1
tp481
F-0.9631512351268213
s(I199
I3
tp482
F-18.545623547321572
s(I286
I1
tp483
F-672.74505618432
s(I263
I1
tp484
F293.97811770253577
s(I235
I3
tp485
F6.77463415757536
s(I188
I2
tp486
F-657.7281935372547
s(I275
I2
tp487
F-7389.688875657725
s(I299
I1
tp488
F12.153787461359817
s(I189
I3
tp489
F-1.9628888968945113
s(I142
I2
tp490
F-15.821189933192693
s(I224
I2
tp491
F-45.58574555402138
s(I264
I3
tp492
F-5.060775440833587
s(I225
I3
tp493
F-2.0696743035096765
s(I67
I3
tp494
F-1.1480861292897935
s(I154
I1
tp495
F786.263253692306
s(I265
I2
tp496
F-71.47762166622121
s(I20
I2
tp497
F-15.478317265925506
s(I131
I1
tp498
F2029.3016654034827
s(I21
I3
tp499
F-1.0704583459861505
s(I119
I3
tp500
F167.4206492359677
s(I206
I1
tp501
F1.7325563673865496
s(I230
I2
tp502
F-53.67715268849904
s(I56
I2
tp503
F-40.03999645933336
s(I183
I1
tp504
F-0.6971223622626097
s(I270
I3
tp505
F-71.76225117428797
s(I57
I3
tp506
F330.2733822565511
s(I242
I1
tp507
F0.33235304865277876
s(I10
I2
tp508
F-438.08005493783986
s(I108
I2
tp509
F-705.1626236008075
s(I195
I2
tp510
F-869.3725435404479
s(I219
I1
tp511
F-1.547554260125092
s(I306
I3
tp512
F164.8778708427079
s(I38
I1
tp513
F0.40142470836125044
s(I247
I2
tp514
F-2005.4286780999093
s(I15
I1
tp515
F0.22060823843618027
s(I184
I3
tp516
F-4.155082207628321
s(I260
I2
tp517
F-374.0038526706587
s(I185
I2
tp518
F-193.73570581253563
s(I268
I1
tp519
F-1.5504409337128742
s(I51
I1
tp520
F0.018804820125083433
s(I236
I3
tp521
F19.580019604534566
s(I237
I2
tp522
F-173.51917351921378
s(I79
I2
tp523
F-695.6048860938982
s(I103
I1
tp524
F1.091285759738646
s(I190
I3
tp525
F-10.733587421753864
s(I277
I1
tp526
F9.543765217370725
s(I16
I3
tp527
F-0.9149623278426134
s(I17
I2
tp528
F-7624.651889168914
s(I115
I2
tp529
F-17.503021422055046
s(I226
I3
tp530
F-2.5033441788287707
s(I68
I3
tp531
F174.08683358029586
s(I69
I2
tp532
F-6011.201568125269
s(I22
I3
tp533
F10.160884901965991
s(I104
I3
tp534
F-0.9888116696928215
s(I105
I2
tp535
F-638.521973427876
s(I271
I3
tp536
F-182.2829664086862
s(I58
I3
tp537
F-0.6221295845672011
s(I81
I1
tp538
F158.3340870955575
s(I220
I1
tp539
F3.0404939980890573
s(I307
I3
tp540
F135.83247895949063
s(I197
I1
tp541
F24.9084348639251
s(I261
I3
tp542
F3.2306450210625446
s(I304
I1
tp543
F379.5149381903896
s(I233
I1
tp544
F-5.353103056763058
s(I297
I3
tp545
F1.8184205263510569
s(I52
I1
tp546
F0.04727901174944222
s(I191
I3
tp547
F24.391556295664063
s(I278
I1
tp548
F66.23564716736355
s(I302
I2
tp549
F-580.485996880487
s(I128
I2
tp550
F-142.23713258633117
s(I129
I3
tp551
F-1.0499517949858013
s(I227
I3
tp552
F-10.644575119808666
s(I180
I2
tp553
F-6719.285876093528
s(I267
I2
tp554
F-147.61399319984037
s(I291
I1
tp555
F362.5082314761597
s(I23
I3
tp556
F-2.422406895318654
s(I216
I2
tp557
F-508.6445660376926
s(I256
I3
tp558
F-48.1559604387505
s(I217
I3
tp559
F-2.8319252965280968
s(I59
I3
tp560
F-1.3259298830664372
s(I257
I2
tp561
F-590.5408371104608
s(I12
I2
tp562
F-312.81270340644306
s(I13
I3
tp563
F650.0054689047981
s(I198
I1
tp564
F-5.970359414202615
s(I222
I2
tp565
F-40.48477232461479
s(I48
I2
tp566
F-52.77893620122208
s(I262
I3
tp567
F334.79348107063197
s(I234
I1
tp568
F24.949540514810217
s(I187
I2
tp569
F-639.4161647855873
s(I211
I1
tp570
F120.37946249010753
s(I298
I3
tp571
F81.30494994774827
s(I54
I2
tp572
F-341.38198965932315
s(I141
I2
tp573
F-392.8223104593364
s(I239
I2
tp574
F-747.995567959789
s(I7
I1
tp575
F787.9464971710714
s(I66
I1
tp576
F-197.92723224810246
s(I90
I2
tp577
F-551.0738508590285
s(I19
I2
tp578
F-114.35027208581035
s(I43
I1
tp579
F-0.5125588295775289
s(I130
I3
tp580
F-1.0943353547980554
s(I228
I3
tp581
F3.7380538425588283
s(I118
I1
tp582
F3448.182203001869
s(I229
I2
tp583
F-43.219819497052754
s(I71
I2
tp584
F-41.06510666660491
s(I95
I1
tp585
F370.9835989158085
s(I182
I3
tp586
F210.16195440589064
s(I269
I1
tp587
F175.5739341828843
s(I8
I3
tp588
F-1.0099370055278436
s(I9
I2
tp589
F-114.13363526424546
s(I107
I2
tp590
F-285.4318998903321
s(I218
I3
tp591
F-3.404141929342627
s(I305
I1
tp592
F80.35860702288548
s(I60
I3
tp593
F-0.7681434240396607
s(I65
I1
tp594
F0.4361736761889411
s(I14
I3
tp595
F-0.6498833696967427
s(I96
I3
tp596
F220.2266600134403
s(I217
I1
tp597
F14.817335283689095
s(I225
I2
tp598
F-54.616091556789605
s(I50
I3
tp599
F-1.2204839225704243
s(I212
I1
tp600
F-200.6446702522935
s(I299
I3
tp601
F157.25759711024511
s(I102
I3
tp602
F-1.5773556261000048
s(I189
I1
tp603
F899.802294040323
s(I248
I1
tp604
F0.08730556630246475
s(I288
I2
tp605
F-1172.4634783959357
s(I289
I3
tp606
F-193.92961659311305
s(I44
I1
tp607
F2412.315388414505
s(I131
I3
tp608
F-1.1048316078459048
s(I21
I1
tp609
F248.1848368926927
s(I80
I1
tp610
F182.4772282364634
s(I183
I3
tp611
F234.8038540497493
s(I270
I1
tp612
F8.495115934825025
s(I294
I2
tp613
F-6181.683573494803
s(I57
I1
tp614
F108.10307695148515
s(I117
I1
tp615
F255.0687576495547
s(I219
I3
tp616
F0.3321097582980425
s(I306
I1
tp617
F87.87161550663801
s(I259
I2
tp618
F-286.257547615293
s(I283
I1
tp619
F195.69704756957145
s(I15
I3
tp620
F-2.2130446810744804
s(I208
I2
tp621
F-378.35818138735857
s(I209
I3
tp622
F-6.01017748460224
s(I51
I3
tp623
F-1.5500290925611395
s(I4
I2
tp624
F-339.01832716753523
s(I300
I3
tp625
F159.4095769893021
s(I5
I3
tp626
F-1.0779235288032074
s(I103
I3
tp627
F-1.3043238359552272
s(I190
I1
tp628
F8.50152609215451
s(I214
I2
tp629
F-68.68281638020896
s(I301
I2
tp630
F-985.5140045436037
s(I40
I2
tp631
F-8959.162556886024
s(I143
I2
tp632
F-1120.2325002998891
s(I167
I1
tp633
F-0.8764946691562593
s(I41
I3
tp634
F229.06925078360578
s(I226
I1
tp635
F154.27173192328377
s(I250
I2
tp636
F-236.84318920588098
s(I92
I2
tp637
F-129.97326732201324
s(I203
I1
tp638
F629.5231089898251
s(I290
I3
tp639
F42.70955218335267
s(I132
I3
tp640
F-1.8180407607001317
s(I93
I3
tp641
F-0.5862798564119154
s(I22
I1
tp642
F-0.997482308974394
s(I46
I2
tp643
F-1093.0893979486107
s(I231
I2
tp644
F-51.09831255683953
s(I255
I1
tp645
F-362.3475599893285
s(I168
I3
tp646
F-1.4369499843066122
s(I58
I1
tp647
F3067.6720364898893
s(I82
I2
tp648
F-743.001011190586
s(I11
I2
tp649
F-4209.626116555793
s(I220
I3
tp650
F780.4245060121646
s(I221
I2
tp651
F-4178.692991149454
s(I63
I2
tp652
F-625.6476511518274
s(I261
I1
tp653
F1385.2107977352482
s(I264
I2
tp654
F-48.26704413957392
s(I1
I2
tp655
F-350.16313582992854
s(I272
I1
tp656
F2.387495564215364
s(I210
I3
tp657
F-3.5534673209753906
s(I297
I1
tp658
F87.36073796534983
s(I52
I3
tp659
F-1.6461019361877811
s(I53
I2
tp660
F-1786.5366147676912
s(I6
I3
tp661
F-0.9389206600800323
s(I89
I2
tp662
F-1020.487991255167
s(I42
I3
tp663
F-0.6958322845567166
s(I129
I1
tp664
F193.8469544902334
s(I204
I1
tp665
F33.25977593667979
s(I291
I3
tp666
F-5.424052927700778
s(I94
I3
tp667
F-2.726198390926056
s(I240
I1
tp668
F24.52895973156691
s(I280
I2
tp669
F-458.88272054254116
s(I281
I3
tp670
F-12.06860949882013
s(I36
I1
tp671
F-0.9649420359274943
s(I13
I1
tp672
F-0.9151706228051153
s(I72
I1
tp673
F-0.7792488296741487
s(I262
I1
tp674
F0.848517414815998
s(I286
I2
tp675
F-1298.8662874902245
s(I211
I3
tp676
F-4.365808808009012
s(I298
I1
tp677
F4.013787084487205
s(I275
I1
tp678
F1525.228811677451
s.