(dp0
(I7
I3
tp1
F672.3973451716838
s(I200
I2
tp2
F-982.2496837277686
s(I303
I2
tp3
F-707.7753554195624
s(I201
I3
tp4
F1202.607714741493
s(I43
I3
tp5
F861.8663750769313
s(I130
I1
tp6
F1510.7565955533066
s(I154
I2
tp7
F-163.8731492580595
s(I252
I2
tp8
F-818.0933789527508
s(I292
I3
tp9
F653.6904294147456
s(I253
I3
tp10
F311.21241037200343
s(I95
I3
tp11
F1472.5502008637154
s(I182
I1
tp12
F888.4264902677846
s(I206
I2
tp13
F-1236.4562279146935
s(I293
I2
tp14
F-299.8451208649616
s(I218
I1
tp15
F673.4690349643721
s(I242
I2
tp16
F-1314.8644457607763
s(I84
I2
tp17
F-930.9880698954018
s(I195
I1
tp18
F479.3772045944305
s(I282
I3
tp19
F44.25410889501734
s(I14
I1
tp20
F1829.6356506099905
s(I38
I2
tp21
F-320.10553907864414
s(I120
I2
tp22
F636.3570975422473
s(I223
I2
tp23
F88.88139285196823
s(I247
I1
tp24
F298.29517551908555
s(I50
I1
tp25
F1441.1665308009915
s(I193
I2
tp26
F-783.2761344267176
s(I3
I2
tp27
F-194.34216906262563
s(I212
I3
tp28
F-147.50462141851784
s(I102
I1
tp29
F1004.2804922735384
s(I213
I2
tp30
F-1328.3408425575349
s(I55
I2
tp31
F-792.1236826491884
s(I79
I1
tp32
F957.0821544448155
s(I248
I3
tp33
F537.2294194992535
s(I249
I2
tp34
F-613.7437030669003
s(I91
I2
tp35
F-1309.4501771852927
s(I115
I1
tp36
F942.2762879575399
s(I202
I3
tp37
F1105.21987689611
s(I289
I1
tp38
F343.577421848964
s(I44
I3
tp39
F524.6071827280567
s(I45
I2
tp40
F-2318.541182840453
s(I254
I3
tp41
F249.37184340005126
s(I80
I3
tp42
F1014.1504888667014
s(I144
I1
tp43
F1117.0272394676435
s(I93
I2
tp44
F-685.346579818559
s(I196
I1
tp45
F1443.003748931024
s(I283
I3
tp46
F505.8773760241404
s(I237
I1
tp47
F506.97609316355044
s(I232
I1
tp48
F533.7054757077653
s(I209
I1
tp49
F297.5475457413693
s(I273
I3
tp50
F606.8798122308793
s(I5
I1
tp51
F368.18483554364605
s(I64
I1
tp52
F1030.706040197934
s(I167
I3
tp53
F671.1301981022052
s(I278
I2
tp54
F-893.8386572078697
s(I41
I1
tp55
F1113.1317731173806
s(I116
I1
tp56
F1627.1598908973792
s(I203
I3
tp57
F700.5769812853191
s(I290
I1
tp58
F883.1528437523534
s(I93
I1
tp59
F1452.5402144703125
s(I267
I1
tp60
F514.1686748035543
s(I255
I3
tp61
F481.49532789136555
s(I192
I2
tp62
F-251.13002535701992
s(I295
I2
tp63
F-649.9530215472232
s(I193
I3
tp64
F136.2165460412474
s(I244
I2
tp65
F-1044.5919245295925
s(I284
I3
tp66
F299.77789814157654
s(I245
I3
tp67
F1173.474192595957
s(I198
I2
tp68
F-1030.3489486890835
s(I285
I2
tp69
F-1176.583247663098
s(I210
I1
tp70
F1043.2873399476046
s(I234
I2
tp71
F-994.8667746038537
s(I76
I2
tp72
F-1357.5052621724258
s(I187
I1
tp73
F908.4952968122888
s(I274
I3
tp74
F445.5985109794665
s(I77
I3
tp75
F703.1869580323087
s(I6
I1
tp76
F1369.1151626256258
s(I215
I2
tp77
F-319.94251061993566
s(I239
I1
tp78
F276.9655464801536
s(I42
I1
tp79
F980.3163265080608
s(I66
I2
tp80
F-456.96227184975214
s(I251
I2
tp81
F-2176.890930560374
s(I19
I1
tp82
F884.6210436047938
s(I204
I3
tp83
F1058.067374396302
s(I94
I1
tp84
F1099.8198527684808
s(I118
I2
tp85
F-825.1329629115555
s(I205
I2
tp86
F-1244.6954801124243
s(I47
I2
tp87
F-325.5028974968077
s(I71
I1
tp88
F1179.2154302150025
s(I240
I3
tp89
F559.7602653456187
s(I241
I2
tp90
F-1096.4253290918518
s(I83
I2
tp91
F-94.13746002276997
s(I107
I1
tp92
F1360.1548728614002
s(I194
I3
tp93
F712.1069428293525
s(I281
I1
tp94
F168.35008693881798
s(I36
I3
tp95
F261.0426090886596
s(I132
I2
tp96
F-765.1145892890497
s(I37
I2
tp97
F-1100.891601071959
s(I246
I3
tp98
F1069.9954978786595
s(I72
I3
tp99
F881.6203999524259
s(I221
I1
tp100
F622.091219150709
s(I292
I1
tp101
F149.4378894736931
s(I188
I1
tp102
F200.950001210001
s(I275
I3
tp103
F601.9052422966789
s(I78
I3
tp104
F-45.365217593921216
s(I224
I1
tp105
F718.1512138102132
s(I201
I1
tp106
F660.2078424560632
s(I265
I3
tp107
F753.7556633590597
s(I20
I1
tp108
F829.1669088182983
s(I253
I1
tp109
F1284.2874978016953
s(I56
I1
tp110
F1210.363841657091
s(I270
I2
tp111
F-1355.8439968549583
s(I168
I2
tp112
F-722.6785183778838
s(I108
I1
tp113
F1595.2008374186328
s(I195
I3
tp114
F482.2761368638048
s(I282
I1
tp115
F584.1079965287039
s(I306
I2
tp116
F-904.6277870792845
s(I259
I1
tp117
F802.0645406354607
s(I247
I3
tp118
F733.9588367427409
s(I184
I2
tp119
F-1170.4542534737047
s(I287
I2
tp120
F-732.7570884699097
s(I185
I3
tp121
F960.2490557471519
s(I236
I2
tp122
F-62.0987186878304
s(I276
I3
tp123
F1005.1085346078534
s(I237
I3
tp124
F515.7340937732893
s(I79
I3
tp125
F1846.4894644550036
s(I190
I2
tp126
F-540.1816358463977
s(I277
I2
tp127
F-219.56717452753068
s(I16
I2
tp128
F-562.2003898234208
s(I143
I1
tp129
F1464.0261852595625
s(I17
I3
tp130
F879.9686304682399
s(I115
I3
tp131
F445.69962648937053
s(I202
I1
tp132
F926.9631420999632
s(I226
I2
tp133
F-751.0847539489664
s(I68
I2
tp134
F-733.9261589997132
s(I155
I2
tp135
F-558.900376737465
s(I266
I3
tp136
F753.7162757433567
s(I69
I3
tp137
F581.7120457779962
s(I254
I1
tp138
F539.5780921997937
s(I22
I2
tp139
F-166.9224109486714
s(I104
I2
tp140
F-1680.5990924428995
s(I207
I2
tp141
F-1417.356463945222
s(I231
I1
tp142
F833.0029949815707
s(I144
I3
tp143
F724.0267607082712
s(I105
I3
tp144
F735.089716073651
s(I58
I2
tp145
F-869.7288757952864
s(I243
I2
tp146
F-1702.083378673489
s(I11
I1
tp147
F605.2643596198633
s(I196
I3
tp148
F972.4947142599495
s(I260
I1
tp149
F1295.3928932390668
s(I39
I2
tp150
F-334.2183230427689
s(I63
I1
tp151
F674.1408595811803
s(I232
I3
tp152
F534.850501060773
s(I205
I1
tp153
F732.2211166545463
s(I233
I2
tp154
F-608.1972309632129
s(I276
I1
tp155
F1186.6610162193838
s(I186
I3
tp156
F496.6441217742398
s(I273
I1
tp157
F896.7200630115166
s(I238
I3
tp158
F625.274268090747
s(I64
I3
tp159
F1339.6139451945444
s(I65
I2
tp160
F-1517.773068936091
s(I18
I3
tp161
F1102.5683607138512
s(I116
I3
tp162
F623.304951050224
s(I180
I1
tp163
F1648.277543609983
s(I267
I3
tp164
F-24.149077734424054
s(I70
I3
tp165
F639.0309745401164
s(I216
I1
tp166
F1006.6508551413167
s(I106
I3
tp167
F1181.4149310993278
s(I193
I1
tp168
F632.2180562717252
s(I257
I3
tp169
F1018.1076324564428
s(I12
I1
tp170
F895.8237985486268
s(I245
I1
tp171
F703.928246172813
s(I241
I1
tp172
F147.26417084717306
s(I48
I1
tp173
F1279.9339663897667
s(I262
I2
tp174
F-1829.661100920906
s(I187
I3
tp175
F604.5399017858747
s(I274
I1
tp176
F737.7158094644698
s(I298
I2
tp177
F-757.1896178517729
s(I77
I1
tp178
F1389.1893786283194
s(I141
I3
tp179
F1164.61125517564
s(I239
I3
tp180
F427.4281740346583
s(I279
I2
tp181
F-753.4438465896163
s(I303
I1
tp182
F491.1622477967723
s(I19
I3
tp183
F1079.9778085266296
s(I130
I2
tp184
F-241.06561289096405
s(I228
I2
tp185
F-1671.868584008191
s(I268
I3
tp186
F555.489650883295
s(I229
I3
tp187
F857.1657519237131
s(I71
I3
tp188
F437.2207597923804
s(I182
I2
tp189
F-522.0888080875766
s(I269
I2
tp190
F-717.9169896933752
s(I8
I2
tp191
F-477.4011196983737
s(I304
I3
tp192
F8.482920161183358
s(I9
I3
tp193
F927.0672058582036
s(I107
I3
tp194
F695.4325553803055
s(I194
I1
tp195
F230.93622708033314
s(I218
I2
tp196
F-1156.6742365332823
s(I305
I2
tp197
F-1025.1820605861374
s(I60
I2
tp198
F-809.9755064571006
s(I258
I3
tp199
F1039.2160297332434
s(I246
I1
tp200
F674.5453017553064
s(I14
I2
tp201
F-591.8455985589158
s(I96
I2
tp202
F-1083.681459399016
s(I199
I2
tp203
F-895.6480705936694
s(I223
I1
tp204
F866.4786567512604
s(I50
I2
tp205
F-1169.5131281972147
s(I197
I2
tp206
F-1158.396720315039
s(I235
I2
tp207
F-588.0558452567356
s(I3
I1
tp208
F689.6655395120512
s(I188
I3
tp209
F568.9914630134375
s(I78
I1
tp210
F359.62703824450165
s(I102
I2
tp211
F-381.5702101778911
s(I189
I2
tp212
F-88.52422554900316
s(I55
I1
tp213
F1475.7767370028787
s(I142
I3
tp214
F1028.8615025487793
s(I224
I3
tp215
F786.085996409364
s(I288
I1
tp216
F237.18258141324495
s(I67
I2
tp217
F-293.26554042793174
s(I91
I1
tp218
F803.441662533149
s(I265
I1
tp219
F499.35316563534997
s(I20
I3
tp220
F342.0374014733691
s(I21
I2
tp221
F-167.02519208113915
s(I119
I2
tp222
F-147.85896574370548
s(I230
I3
tp223
F89.89874878524158
s(I56
I3
tp224
F585.4801521818619
s(I57
I2
tp225
F-1055.3840340313347
s(I10
I3
tp226
F1889.4455242433792
s(I108
I3
tp227
F811.4245953433245
s(I81
I2
tp228
F-1937.9247874265668
s(I259
I3
tp229
F808.3394976300665
s(I288
I2
tp230
F-1588.8693004955585
s(I208
I1
tp231
F985.0997843888136
s(I185
I1
tp232
F1654.457210078429
s(I4
I1
tp233
F991.1383662179279
s(I300
I2
tp234
F-303.4131473487893
s(I301
I3
tp235
F417.54906196403095
s(I40
I1
tp236
F833.7779337613182
s(I143
I3
tp237
F1660.815194028538
s(I17
I1
tp238
F573.8408567082661
s(I92
I1
tp239
F1006.8639184687099
s(I266
I1
tp240
F780.7602982509568
s(I290
I2
tp241
F-883.7362341981152
s(I69
I1
tp242
F637.3169399394894
s(I231
I3
tp243
F408.0677973209838
s(I105
I1
tp244
F1284.1495143507811
s(I271
I2
tp245
F-1549.7450853469002
s(I295
I1
tp246
F913.1655364018739
s(I11
I3
tp247
F615.08863080748
s(I220
I2
tp248
F-838.3099488208151
s(I307
I2
tp249
F-1003.7774388227834
s(I260
I3
tp250
F559.2130431986897
s(I221
I3
tp251
F648.2089856824134
s(I63
I3
tp252
F936.4717377193995
s(I261
I2
tp253
F-1039.0098929979813
s(I1
I3
tp254
F1013.3139433261945
s(I186
I1
tp255
F87.6827849857167
s(I210
I2
tp256
F-575.3996154509144
s(I297
I2
tp257
F-858.3809902080739
s(I52
I2
tp258
F-1469.4624256785432
s(I53
I3
tp259
F1110.2887767406687
s(I238
I1
tp260
F422.2969718315887
s(I6
I2
tp261
F-619.450368972871
s(I191
I2
tp262
F-143.9982046872959
s(I215
I1
tp263
F875.8818221559401
s(I302
I3
tp264
F298.96843613601357
s(I128
I3
tp265
F690.9654421281649
s(I89
I3
tp266
F580.6089469086679
s(I18
I1
tp267
F407.9460896053302
s(I42
I2
tp268
F-261.96432559966615
s(I129
I2
tp269
F-86.30252698032922
s(I227
I2
tp270
F-1546.0606524761968
s(I251
I1
tp271
F131.885484204868
s(I180
I3
tp272
F994.470128694089
s(I70
I1
tp273
F942.6283014241152
s(I94
I2
tp274
F-87.4103725095788
s(I23
I2
tp275
F-542.3441209097974
s(I47
I1
tp276
F2235.9396574043685
s(I216
I3
tp277
F590.3427470596587
s(I106
I1
tp278
F960.648735275602
s(I280
I1
tp279
F822.3408229863979
s(I59
I2
tp280
F-79.82863325537025
s(I83
I1
tp281
F1278.9576720768307
s(I257
I1
tp282
F378.51402437409183
s(I12
I3
tp283
F2.9681158869485387
s(I128
I1
tp284
F919.6741442510653
s(I13
I2
tp285
F-727.7760919498401
s(I222
I3
tp286
F1047.1254251802861
s(I48
I3
tp287
F442.738350766178
s(I272
I2
tp288
F-355.0104181163682
s(I217
I2
tp289
F-496.01059938372174
s(I54
I3
tp290
F628.9578749527686
s(I141
I1
tp291
F540.4097704738828
s(I200
I1
tp292
F599.756130099886
s(I303
I3
tp293
F399.8950585826836
s(I90
I3
tp294
F542.117778668584
s(I252
I1
tp295
F1659.0196693912171
s(I292
I2
tp296
F-860.2785586263783
s(I293
I3
tp297
F387.8612994519231
s(I9
I1
tp298
F502.7412611748665
s(I117
I2
tp299
F135.24904454851657
s(I84
I1
tp300
F570.7387078380171
s(I258
I1
tp301
F1131.4684559516493
s(I282
I2
tp302
F-883.6812662968889
s(I120
I1
tp303
F1669.5392366018611
s(I223
I3
tp304
F855.5254250359895
s(I263
I2
tp305
F-1619.2960020988298
s(I287
I1
tp306
F741.7651657820993
s(I3
I3
tp307
F1081.2818949238415
s(I212
I2
tp308
F-1054.6856453007044
s(I299
I2
tp309
F-357.2869552592545
s(I213
I3
tp310
F567.6933778332075
s(I55
I3
tp311
F889.7178238599367
s(I142
I1
tp312
F508.4683749454136
s(I248
I2
tp313
F-686.3270207280327
s(I288
I3
tp314
F419.92999497803123
s(I249
I3
tp315
F696.4872667315275
s(I91
I3
tp316
F531.1391840707656
s(I202
I2
tp317
F40.43542264873328
s(I289
I2
tp318
F-645.5670590367943
s(I44
I2
tp319
F-2401.1541991503686
s(I131
I2
tp320
F-831.768047733154
s(I155
I1
tp321
F1198.1404084236444
s(I45
I3
tp322
F720.6935522075752
s(I230
I1
tp323
F735.816796274508
s(I254
I2
tp324
F-1071.0372352302993
s(I80
I2
tp325
F-1241.693420820042
s(I183
I2
tp326
F-884.4437263385888
s(I207
I1
tp327
F901.454538460712
s(I294
I3
tp328
F682.7030224346755
s(I81
I3
tp329
F335.22930358979113
s(I10
I1
tp330
F339.47577448568876
s(I219
I2
tp331
F-1126.6758532101348
s(I243
I1
tp332
F186.9124334054026
s(I15
I2
tp333
F-2105.708389312476
s(I39
I1
tp334
F1049.2285734000923
s(I208
I3
tp335
F458.41375862186146
s(I256
I2
tp336
F-1442.7444505852561
s(I209
I2
tp337
F-1766.7806422686822
s(I201
I2
tp338
F-857.990693534127
s(I51
I2
tp339
F76.6160142434112
s(I4
I3
tp340
F347.5281615946631
s(I5
I2
tp341
F-1324.046506298996
s(I103
I2
tp342
F-800.6778797582381
s(I214
I3
tp343
F79.26819190289594
s(I301
I1
tp344
F635.9512784631481
s(I40
I3
tp345
F1130.184150347933
s(I41
I2
tp346
F-375.2142016965737
s(I250
I3
tp347
F639.6316140647255
s(I92
I3
tp348
F1537.0415763778185
s(I156
I1
tp349
F1283.0401903529537
s(I46
I3
tp350
F1148.6779744741807
s(I192
I1
tp351
F785.5889126347255
s(I295
I3
tp352
F425.0669935656438
s(I82
I3
tp353
F1035.1003895434526
s(I156
I2
tp354
F-1518.408502446779
s(I244
I1
tp355
F629.2340605250963
s(I284
I2
tp356
F-1402.6882140162788
s(I285
I3
tp357
F961.9240915796252
s(I1
I1
tp358
F305.31294418516757
s(I76
I1
tp359
F878.6652485304161
s(I274
I2
tp360
F-1362.0815958761611
s(I53
I1
tp361
F747.9922811464305
s(I215
I3
tp362
F1050.7160672079683
s(I302
I1
tp363
F560.3015323256523
s(I89
I1
tp364
F1342.443876023908
s(I279
I1
tp365
F628.0854803519306
s(I251
I3
tp366
F726.2323088703115
s(I204
I2
tp367
F-1561.722160579473
s(I291
I2
tp368
F-868.9327819101086
s(I205
I3
tp369
F190.33836903768284
s(I47
I3
tp370
F1258.3869755738026
s(I240
I2
tp371
F-936.2995878936356
s(I280
I3
tp372
F798.5610005940074
s(I241
I3
tp373
F711.2884885498072
s(I83
I3
tp374
F1702.7094430778063
s(I194
I2
tp375
F-1044.4874697574505
s(I281
I2
tp376
F-1059.485592353662
s(I36
I2
tp377
F-944.0006824532228
s(I37
I3
tp378
F1271.5785959830293
s(I222
I1
tp379
F620.1665573792816
s(I246
I2
tp380
F-1207.646814277175
s(I72
I2
tp381
F-339.8349273435849
s(I199
I1
tp382
F834.2161532375599
s(I286
I3
tp383
F481.0239640433868
s(I211
I2
tp384
F-1133.5749881973993
s(I235
I1
tp385
F-32.16321919145912
s(I54
I1
tp386
F1100.0758586664815
s(I78
I2
tp387
F-1261.0211672859914
s(I7
I2
tp388
F-550.7983307855286
s(I200
I3
tp389
F901.0764438153856
s(I90
I1
tp390
F1395.531899506603
s(I264
I1
tp391
F536.6622158427549
s(I43
I2
tp392
F-1736.080807900383
s(I67
I1
tp393
F1019.182322178695
s(I154
I3
tp394
F1153.52428680793
s(I252
I3
tp395
F686.1330011299198
s(I253
I2
tp396
F-789.624301920912
s(I95
I2
tp397
F242.2692865231933
s(I119
I1
tp398
F2044.1046536478816
s(I206
I3
tp399
F980.6087516569609
s(I293
I1
tp400
F1230.2970272901018
s(I242
I3
tp401
F795.9253318431545
s(I84
I3
tp402
F544.8028128618021
s(I38
I3
tp403
F1205.125322329209
s(I120
I3
tp404
F2166.2597001504514
s(I229
I1
tp405
F397.4572252760941
s(I184
I1
tp406
F1344.4793327244079
s(I287
I3
tp407
F877.0726279199268
s(I236
I1
tp408
F921.5898060970803
s(I276
I2
tp409
F-13.393656581041306
s(I237
I2
tp410
F-1615.706368397939
s(I16
I1
tp411
F1102.101427098027
s(I249
I1
tp412
F961.2335612347281
s(I68
I1
tp413
F1311.9736635578959
s(I155
I3
tp414
F915.4186733681634
s(I266
I2
tp415
F-202.98210415187617
s(I45
I1
tp416
F1377.7537704876627
s(I104
I1
tp417
F610.6197331060266
s(I207
I3
tp418
F425.0494313185345
s(I294
I1
tp419
F956.3060736170061
s(I81
I1
tp420
F195.74536096010848
s(I271
I1
tp421
F1003.0066348707004
s(I243
I3
tp422
F520.6127504321652
s(I196
I2
tp423
F-1507.263217742183
s(I283
I2
tp424
F-1906.237855703504
s(I307
I1
tp425
F281.2272429348633
s(I197
I3
tp426
F395.60148024262287
s(I39
I3
tp427
F1052.4170435664546
s(I232
I2
tp428
F-1440.3659700042372
s(I272
I3
tp429
F799.4636391364005
s(I233
I3
tp430
F856.7365107701979
s(I186
I2
tp431
F-790.5886862056144
s(I273
I2
tp432
F-1066.5696446103345
s(I214
I1
tp433
F682.0090619949726
s(I238
I2
tp434
F-999.8199055210797
s(I64
I2
tp435
F-1659.8753584506153
s(I167
I2
tp436
F282.6261901045783
s(I191
I1
tp437
F847.5437000708547
s(I278
I3
tp438
F793.4955301789448
s(I65
I3
tp439
F497.2795787613676
s(I250
I1
tp440
F1001.0239696028316
s(I18
I2
tp441
F-673.2695404949864
s(I116
I2
tp442
F-1080.0720066531694
s(I203
I2
tp443
F-107.6447543964296
s(I227
I1
tp444
F1127.62437634349
s(I156
I3
tp445
F465.45719008976374
s(I117
I3
tp446
F764.174613269839
s(I46
I1
tp447
F1855.0634175485059
s(I70
I2
tp448
F-1584.1075316591462
s(I255
I2
tp449
F-536.7894264243971
s(I23
I1
tp450
F1027.0641481995146
s(I192
I3
tp451
F1290.6612256366486
s(I82
I1
tp452
F952.9424395666314
s(I106
I2
tp453
F-491.4797694660391
s(I256
I1
tp454
F674.64209504671
s(I59
I1
tp455
F1132.1286736863838
s(I244
I3
tp456
F656.5893873021803
s(I132
I1
tp457
F1059.2950956759657
s(I245
I2
tp458
F-469.83301618493726
s(I198
I3
tp459
F291.4346000641007
s(I285
I1
tp460
F565.8412145646912
s(I213
I1
tp461
F994.0732288450887
s(I221
I2
tp462
F-1119.638756286268
s(I234
I3
tp463
F522.9209027435279
s(I76
I3
tp464
F896.7349246319502
s(I77
I2
tp465
F-1020.229695226399
s(I279
I3
tp466
F489.2797060724385
s(I66
I3
tp467
F1050.8205232155042
s(I225
I2
tp468
F-1684.1794823572377
s(I277
I3
tp469
F668.2419243582892
s(I228
I1
tp470
F-460.8911294919436
s(I118
I3
tp471
F1088.5798446359825
s(I268
I2
tp472
F-90.19841025244168
s(I269
I3
tp473
F1210.0596939670424
s(I8
I1
tp474
F148.4870573288361
s(I304
I2
tp475
F-361.7602491955437
s(I105
I2
tp476
F-457.86567979559516
s(I305
I3
tp477
F462.52925294844164
s(I60
I1
tp478
F1186.7692241429036
s(I258
I2
tp479
F-637.0751158360395
s(I37
I1
tp480
F922.8438410167546
s(I96
I1
tp481
F720.2718743976071
s(I199
I3
tp482
F1047.7420058721716
s(I286
I1
tp483
F608.8195666890256
s(I263
I1
tp484
F589.7274166661115
s(I235
I3
tp485
F1686.1348083321834
s(I188
I2
tp486
F-812.3586344709519
s(I275
I2
tp487
F-252.81105171530595
s(I299
I1
tp488
F463.64961324549387
s(I189
I3
tp489
F673.4659429447254
s(I142
I2
tp490
F-488.3731676850226
s(I224
I2
tp491
F-1217.577184174359
s(I264
I3
tp492
F563.1340544591935
s(I225
I3
tp493
F536.2025162941692
s(I67
I3
tp494
F1338.3260648921562
s(I154
I1
tp495
F1904.1218910316372
s(I265
I2
tp496
F-862.3777554233868
s(I20
I2
tp497
F-1221.8118579792044
s(I131
I1
tp498
F1195.7043284724932
s(I21
I3
tp499
F1020.138386784714
s(I119
I3
tp500
F935.5329203442406
s(I206
I1
tp501
F282.7129699482521
s(I230
I2
tp502
F-1079.465687180548
s(I56
I2
tp503
F-1067.9228618479326
s(I183
I1
tp504
F426.6843661058287
s(I270
I3
tp505
F613.2282998055346
s(I57
I3
tp506
F1256.8090865253128
s(I242
I1
tp507
F543.6690943160378
s(I10
I2
tp508
F210.12593304697108
s(I108
I2
tp509
F-97.47876339306018
s(I195
I2
tp510
F-1765.6771007886045
s(I219
I1
tp511
F1140.7165755547735
s(I306
I3
tp512
F634.6449089602287
s(I38
I1
tp513
F1750.883217109932
s(I247
I2
tp514
F-1510.3792704299774
s(I15
I1
tp515
F369.4946530713229
s(I184
I3
tp516
F490.6684801299769
s(I260
I2
tp517
F-777.028517874281
s(I185
I2
tp518
F248.6218461922743
s(I268
I1
tp519
F719.8611296173777
s(I51
I1
tp520
F932.038643390699
s(I236
I3
tp521
F721.899891927241
s(I300
I1
tp522
F456.91517695836706
s(I79
I2
tp523
F-1563.8835526049538
s(I103
I1
tp524
F966.5126298150734
s(I190
I3
tp525
F1624.4239913525878
s(I277
I1
tp526
F1317.8787012666462
s(I16
I3
tp527
F790.1192725699186
s(I17
I2
tp528
F-1839.4213873981064
s(I115
I2
tp529
F-1026.2193128802276
s(I226
I3
tp530
F559.1910195101805
s(I68
I3
tp531
F855.4667560550772
s(I69
I2
tp532
F-1588.0165671173395
s(I22
I3
tp533
F1335.974466387968
s(I104
I3
tp534
F781.7233085867964
s(I168
I1
tp535
F801.2887329139121
s(I271
I3
tp536
F519.7091838083358
s(I58
I3
tp537
F702.9154427069676
s(I144
I2
tp538
F118.97627458280047
s(I220
I1
tp539
F992.9542657751248
s(I307
I3
tp540
F583.2720276219188
s(I197
I1
tp541
F1146.5535290478347
s(I261
I3
tp542
F835.2789739065071
s(I304
I1
tp543
F470.85054703500236
s(I233
I1
tp544
F1643.3040055837655
s(I297
I3
tp545
F473.20577571510347
s(I52
I1
tp546
F806.5581049918443
s(I191
I3
tp547
F1022.7706385595092
s(I278
I1
tp548
F293.67639100625723
s(I302
I2
tp549
F-721.3063769142839
s(I65
I1
tp550
F1084.4635321880294
s(I129
I3
tp551
F1245.944853782571
s(I227
I3
tp552
F620.2922156325649
s(I180
I2
tp553
F-608.8930304125881
s(I267
I2
tp554
F-1121.4944180990083
s(I291
I1
tp555
F696.7124490251936
s(I23
I3
tp556
F1765.1495377971721
s(I216
I2
tp557
F-1225.6602358548457
s(I256
I3
tp558
F-33.4327710832454
s(I217
I3
tp559
F345.1886496785171
s(I59
I3
tp560
F1633.4469312921656
s(I257
I2
tp561
F-1466.4674398088414
s(I12
I2
tp562
F-779.9770782592773
s(I13
I3
tp563
F471.74721853590654
s(I198
I1
tp564
F320.0846200933437
s(I222
I2
tp565
F-579.5511436839546
s(I48
I2
tp566
F-1793.297286797674
s(I262
I3
tp567
F498.01722890420285
s(I234
I1
tp568
F482.6759814740112
s(I187
I2
tp569
F-363.84064332164115
s(I211
I1
tp570
F625.8673658795411
s(I298
I3
tp571
F641.8977404795309
s(I54
I2
tp572
F-1370.5661698002868
s(I141
I2
tp573
F-921.25391905313
s(I239
I2
tp574
F-1941.3211541510075
s(I7
I1
tp575
F107.76170838008966
s(I66
I1
tp576
F834.660272884119
s(I90
I2
tp577
F-329.9274114844505
s(I19
I2
tp578
F-637.1457030813042
s(I43
I1
tp579
F364.1587458271997
s(I130
I3
tp580
F1117.850398386285
s(I228
I3
tp581
F425.4126027379931
s(I118
I1
tp582
F842.9368503814806
s(I229
I2
tp583
F-1503.277622656707
s(I71
I2
tp584
F-1076.2530554126029
s(I95
I1
tp585
F1732.4436583048296
s(I182
I3
tp586
F1549.7634925051916
s(I269
I1
tp587
F334.62296706104803
s(I8
I3
tp588
F627.4975244816502
s(I9
I2
tp589
F-900.4805404347024
s(I107
I2
tp590
F-1255.751188502497
s(I218
I3
tp591
F400.4952184186287
s(I305
I1
tp592
F409.7817476682598
s(I60
I3
tp593
F480.6365693762051
s(I128
I2
tp594
F-997.0162061963299
s(I14
I3
tp595
F729.722304389411
s(I96
I3
tp596
F1031.4015682360944
s(I280
I2
tp597
F-245.49403332662922
s(I263
I3
tp598
F1599.9971875292172
s(I50
I3
tp599
F251.54708578568804
s(I212
I1
tp600
F743.6585651880578
s(I299
I3
tp601
F475.7220433290129
s(I102
I3
tp602
F918.0364997750283
s(I189
I1
tp603
F1087.4132681746871
s(I248
I1
tp604
F983.5772252491979
s(I225
I1
tp605
F421.485674340169
s(I289
I3
tp606
F660.4966496944577
s(I44
I1
tp607
F672.5550029104919
s(I131
I3
tp608
F1011.3480303465714
s(I21
I1
tp609
F1001.2827522053367
s(I80
I1
tp610
F1302.895484917249
s(I183
I3
tp611
F847.2218222406615
s(I270
I1
tp612
F985.8260162073354
s(I294
I2
tp613
F-748.327205804191
s(I57
I1
tp614
F1107.52360698326
s(I117
I1
tp615
F1556.4995967898715
s(I219
I3
tp616
F857.3799195002426
s(I306
I1
tp617
F398.9671886514972
s(I259
I2
tp618
F-391.5130652898321
s(I283
I1
tp619
F107.56849877099094
s(I15
I3
tp620
F128.1405398258374
s(I208
I2
tp621
F-1336.1956318469634
s(I209
I3
tp622
F-123.3888754966701
s(I51
I3
tp623
F2224.62195511653
s(I4
I2
tp624
F-4842.1571042536
s(I300
I3
tp625
F666.7266333457918
s(I5
I3
tp626
F611.8077953918175
s(I103
I3
tp627
F810.8939542883523
s(I190
I1
tp628
F1368.4046081692393
s(I214
I2
tp629
F-1569.6815094567783
s(I301
I2
tp630
F-537.4377381261816
s(I40
I2
tp631
F-712.3151492455495
s(I143
I2
tp632
F-1021.977550196091
s(I167
I1
tp633
F1270.8992604603648
s(I41
I3
tp634
F1736.0423232251774
s(I226
I1
tp635
F659.9634165507756
s(I250
I2
tp636
F-1536.9814209058745
s(I92
I2
tp637
F-313.1891468891662
s(I203
I1
tp638
F1109.1977585807326
s(I290
I3
tp639
F468.1436261780142
s(I132
I3
tp640
F696.0710533058666
s(I93
I3
tp641
F740.793801334572
s(I22
I1
tp642
F1405.726973298024
s(I46
I2
tp643
F-687.3328897502312
s(I231
I2
tp644
F-765.9466775441598
s(I255
I1
tp645
F909.4403462718699
s(I168
I3
tp646
F1367.210876810319
s(I58
I1
tp647
F1514.4114988745139
s(I82
I2
tp648
F-949.7429551850734
s(I11
I2
tp649
F-581.3951806851431
s(I220
I3
tp650
F365.57290400623225
s(I284
I1
tp651
F176.99285547894195
s(I63
I2
tp652
F-1264.696371276115
s(I261
I1
tp653
F381.32480245885336
s(I264
I2
tp654
F-822.5037485657361
s(I1
I2
tp655
F-2275.1889005025673
s(I272
I1
tp656
F1136.0375432940684
s(I210
I3
tp657
F558.751312677475
s(I297
I1
tp658
F428.8311069569439
s(I52
I3
tp659
F900.7814160684877
s(I53
I2
tp660
F-1936.2400702489363
s(I6
I3
tp661
F181.6209929761474
s(I89
I2
tp662
F-1086.9039542809703
s(I42
I3
tp663
F854.8187043890313
s(I129
I1
tp664
F932.6260477341136
s(I204
I1
tp665
F480.6498331273565
s(I291
I3
tp666
F936.5573722093773
s(I94
I3
tp667
F1397.5881027619878
s(I240
I1
tp668
F135.5338390377349
s(I217
I1
tp669
F1106.6760163827696
s(I281
I3
tp670
F917.7628827566682
s(I36
I1
tp671
F1195.8680775290554
s(I13
I1
tp672
F917.3800540561281
s(I72
I1
tp673
F834.6442464640618
s(I262
I1
tp674
F624.6785461874539
s(I286
I2
tp675
F-647.646839092921
s(I211
I3
tp676
F206.63920305073918
s(I298
I1
tp677
F399.4197527671676
s(I275
I1
tp678
F1676.9487120630429
s.