(dp0
(I7
I3
tp1
F-0.9981018917399759
s(I200
I2
tp2
F-21.75131026905673
s(I303
I2
tp3
F-118.61719161901325
s(I201
I3
tp4
F-0.8929324655273342
s(I43
I3
tp5
F-1.0135286459477963
s(I130
I1
tp6
F338.2739723821425
s(I154
I2
tp7
F-161.9760409472182
s(I252
I2
tp8
F-266.39105610839056
s(I292
I3
tp9
F112.05772614798566
s(I253
I3
tp10
F-2.1624677274604047
s(I95
I3
tp11
F-0.9632827141728705
s(I182
I1
tp12
F-0.9790843759280259
s(I206
I2
tp13
F-20.960852427052497
s(I293
I2
tp14
F-96.70865110188564
s(I218
I1
tp15
F6.534689134814121
s(I242
I2
tp16
F-288.147844132618
s(I84
I2
tp17
F-438.11659509379416
s(I195
I1
tp18
F10.731033685697948
s(I282
I3
tp19
F-1.573666074771058
s(I14
I1
tp20
F-1.035115002342713
s(I38
I2
tp21
F-835.0964828170046
s(I120
I2
tp22
F-147.13625983104316
s(I223
I2
tp23
F-635.7835963116484
s(I247
I1
tp24
F187.48088936400583
s(I50
I1
tp25
F-0.8091102606017743
s(I193
I2
tp26
F-981.8752303394422
s(I3
I2
tp27
F-15.014295706895833
s(I212
I3
tp28
F6.797001012452672
s(I102
I1
tp29
F-0.30437209487415345
s(I213
I2
tp30
F-521.7268611985115
s(I55
I2
tp31
F-517.4349383939906
s(I79
I1
tp32
F484.25786586843435
s(I248
I3
tp33
F-1.1665311581880575
s(I249
I2
tp34
F-908.5604114339553
s(I91
I2
tp35
F-276.1404589319819
s(I115
I1
tp36
F-0.9860471408936933
s(I202
I3
tp37
F-0.8902803375227569
s(I289
I1
tp38
F73.46199183199515
s(I44
I3
tp39
F-0.7582391981940609
s(I45
I2
tp40
F-353.1156818507554
s(I254
I3
tp41
F0.09024316829523503
s(I80
I3
tp42
F-322.9657178400058
s(I144
I1
tp43
F-0.3983496841125407
s(I156
I1
tp44
F-0.6754950705630305
s(I196
I1
tp45
F13.12664521329784
s(I283
I3
tp46
F-0.6001234415802291
s(I237
I1
tp47
F-0.36671431948800287
s(I232
I1
tp48
F-1.6245508636967376
s(I272
I2
tp49
F-114.64822057183116
s(I273
I3
tp50
F4.651967763848929
s(I5
I1
tp51
F111.0150540082235
s(I64
I1
tp52
F-0.9832232569793202
s(I167
I3
tp53
F308.09745405026183
s(I278
I2
tp54
F-6458.527971042962
s(I41
I1
tp55
F-0.9282619752713882
s(I116
I1
tp56
F-1.0562031405921428
s(I203
I3
tp57
F0.28891831214482194
s(I290
I1
tp58
F6.990281986811164
s(I156
I2
tp59
F-612.3161134360366
s(I267
I1
tp60
F-0.9407046802790103
s(I255
I3
tp61
F3.000919578175389
s(I192
I2
tp62
F-29.092287221545362
s(I295
I2
tp63
F-739.4612492946391
s(I193
I3
tp64
F11.200329546189899
s(I244
I2
tp65
F-68.34990363111739
s(I284
I3
tp66
F2.035964238814837
s(I245
I3
tp67
F-1.072125083843291
s(I198
I2
tp68
F-559.5893475873219
s(I285
I2
tp69
F-431.7767932881055
s(I210
I1
tp70
F2.0236516353574934
s(I234
I2
tp71
F-1065.3080110963933
s(I76
I2
tp72
F-5859.370963146286
s(I187
I1
tp73
F4.16286189783192
s(I274
I3
tp74
F-6.654941287875316
s(I77
I3
tp75
F-0.8366942537001059
s(I6
I1
tp76
F-1.0000087353725096
s(I215
I2
tp77
F-48.32302968153139
s(I239
I1
tp78
F-1.4388771768509787
s(I42
I1
tp79
F-0.9954065032045416
s(I66
I2
tp80
F-948.294107329228
s(I251
I2
tp81
F-19.568058250841453
s(I19
I1
tp82
F400.17869121857035
s(I204
I3
tp83
F-2747.9028337591203
s(I94
I1
tp84
F-0.9935136674690208
s(I118
I2
tp85
F-548.5608931703918
s(I205
I2
tp86
F-948.9420464469398
s(I47
I2
tp87
F-402.0237795611652
s(I71
I1
tp88
F504.14058525449315
s(I240
I3
tp89
F-215.79569288026752
s(I241
I2
tp90
F-554.515408303516
s(I83
I2
tp91
F-165.1476761273732
s(I107
I1
tp92
F-0.9937256418192234
s(I194
I3
tp93
F10.923356754180832
s(I281
I1
tp94
F5.51804018311499
s(I36
I3
tp95
F164.21108463461564
s(I69
I1
tp96
F322.1633868449458
s(I37
I2
tp97
F-3185.9603278734603
s(I246
I3
tp98
F9.06522074560301
s(I72
I3
tp99
F170.24891624140145
s(I221
I1
tp100
F-0.4375574196871046
s(I229
I2
tp101
F-21.316393837770068
s(I188
I1
tp102
F5.429570098153376
s(I275
I3
tp103
F686.9585369153612
s(I78
I3
tp104
F-0.9068098810382051
s(I224
I1
tp105
F6.065727512684342
s(I201
I1
tp106
F8.114320871412213
s(I265
I3
tp107
F108.49530905682995
s(I20
I1
tp108
F-0.7249683005284506
s(I253
I1
tp109
F706.7442546168492
s(I56
I1
tp110
F220.59418916552923
s(I270
I2
tp111
F-17.209006746977735
s(I105
I1
tp112
F-0.9190940377892262
s(I108
I1
tp113
F-0.9989467846481593
s(I195
I3
tp114
F-2.392094762384888
s(I282
I1
tp115
F161.82930199814987
s(I306
I2
tp116
F-324.31986530212146
s(I259
I1
tp117
F-0.919274572308057
s(I247
I3
tp118
F-0.6272008482337702
s(I184
I2
tp119
F-16.287179738558454
s(I287
I2
tp120
F-377.656144665494
s(I185
I3
tp121
F156.21818492049678
s(I236
I2
tp122
F-351.687683703359
s(I276
I3
tp123
F4.005550902288637
s(I237
I3
tp124
F374.64956078023005
s(I79
I3
tp125
F-0.9765352968941049
s(I190
I2
tp126
F-1075.6557186125797
s(I277
I2
tp127
F-16.858449726274724
s(I16
I2
tp128
F-453.0333632811768
s(I143
I1
tp129
F-0.3869560784558697
s(I17
I3
tp130
F-0.9667949897337619
s(I115
I3
tp131
F-0.4582160520461941
s(I202
I1
tp132
F78.71625029557897
s(I226
I2
tp133
F-282.0731008053558
s(I68
I2
tp134
F-365.21300925003254
s(I155
I2
tp135
F-474.18400456078086
s(I266
I3
tp136
F84.53269921321215
s(I69
I3
tp137
F-1.188776973389915
s(I254
I1
tp138
F427.0277422948375
s(I22
I2
tp139
F-573.0011490078018
s(I104
I2
tp140
F-3843.7536306928705
s(I207
I2
tp141
F-209.59001205136698
s(I231
I1
tp142
F-0.5145847040169045
s(I144
I3
tp143
F-1.0380170937537743
s(I105
I3
tp144
F534.3263924029502
s(I58
I2
tp145
F-437.4903380297514
s(I243
I2
tp146
F-3428.457968249801
s(I11
I1
tp147
F2589.5127065599722
s(I196
I3
tp148
F-1.1933773275410686
s(I197
I2
tp149
F-6478.651189831756
s(I39
I2
tp150
F-5059.493022223246
s(I63
I1
tp151
F-0.9712026255352286
s(I232
I3
tp152
F3.8183758509803094
s(I268
I2
tp153
F-3566.7102885571353
s(I233
I2
tp154
F-205.2230679691863
s(I276
I1
tp155
F-0.9586001209546013
s(I186
I3
tp156
F611.5836355545943
s(I273
I1
tp157
F-115.70893770567648
s(I238
I3
tp158
F-1.1068821812094374
s(I64
I3
tp159
F-0.6748306088606115
s(I65
I2
tp160
F-262.128836642609
s(I18
I3
tp161
F-0.8080953945387855
s(I116
I3
tp162
F-0.43440367911106137
s(I180
I1
tp163
F8.120357885168081
s(I267
I3
tp164
F5.52088219956888
s(I70
I3
tp165
F-1.3091068021206194
s(I216
I1
tp166
F6.727971326753762
s(I106
I3
tp167
F328.243094816373
s(I193
I1
tp168
F-0.7137805859857819
s(I257
I3
tp169
F4.568858502540641
s(I12
I1
tp170
F-0.827327385001617
s(I245
I1
tp171
F5.402305998703993
s(I304
I2
tp172
F-225.17162403492566
s(I48
I1
tp173
F-0.26161462469159
s(I262
I2
tp174
F-239.98216701441282
s(I187
I3
tp175
F-0.8750598251976132
s(I274
I1
tp176
F-33.72565008043726
s(I298
I2
tp177
F-297.30742459986413
s(I77
I1
tp178
F2369.6135628532525
s(I141
I3
tp179
F-22.001998959336333
s(I239
I3
tp180
F4.75723793134169
s(I279
I2
tp181
F-173.01510810346747
s(I303
I1
tp182
F15.668348992732186
s(I19
I3
tp183
F-0.9996014141749667
s(I130
I2
tp184
F-159.03834241998345
s(I228
I2
tp185
F-4014.786322572894
s(I268
I3
tp186
F9.86210784598594
s(I229
I3
tp187
F0.10675730757444213
s(I71
I3
tp188
F-0.9651349218089885
s(I182
I2
tp189
F-309.12823393744696
s(I269
I2
tp190
F-17.698855398964387
s(I8
I2
tp191
F-725.0122894417976
s(I304
I3
tp192
F23.474158626098262
s(I9
I3
tp193
F-1.000004034946129
s(I107
I3
tp194
F-0.3536609934703669
s(I194
I1
tp195
F-0.609115587056719
s(I218
I2
tp196
F-21.75904472056968
s(I305
I2
tp197
F-483.3985990179752
s(I60
I2
tp198
F-390.13556724000097
s(I258
I3
tp199
F-1.043539984642025
s(I246
I1
tp200
F-0.7941194094892584
s(I14
I2
tp201
F-126.24583918961814
s(I96
I2
tp202
F-5576.77427712769
s(I199
I2
tp203
F-19.14708299488611
s(I223
I1
tp204
F1.0793570290846273
s(I50
I2
tp205
F-487.3344660338546
s(I260
I1
tp206
F2.9181723712155923
s(I235
I2
tp207
F-1123.3791497856082
s(I3
I1
tp208
F520.0139081077521
s(I188
I3
tp209
F-1.0595656218159553
s(I78
I1
tp210
F1161.038723780318
s(I102
I2
tp211
F-333.1438808516844
s(I189
I2
tp212
F-261.3757287914343
s(I55
I1
tp213
F-0.7368306695117577
s(I142
I3
tp214
F166.49831876730346
s(I224
I3
tp215
F-0.6437180793687193
s(I288
I1
tp216
F176.33286542984627
s(I67
I2
tp217
F-501.094625497704
s(I91
I1
tp218
F240.10872346533526
s(I265
I1
tp219
F353.7833509265254
s(I20
I3
tp220
F-1.0032668032274357
s(I21
I2
tp221
F-282.0652594330019
s(I119
I2
tp222
F-18.16309392065559
s(I230
I3
tp223
F-1.1095746420297266
s(I237
I2
tp224
F-159.5320679412578
s(I56
I3
tp225
F-0.9685102275783772
s(I57
I2
tp226
F-1348.1263310347435
s(I10
I3
tp227
F-0.8788512439908238
s(I108
I3
tp228
F-0.5993746426865514
s(I81
I2
tp229
F-3032.828435897082
s(I259
I3
tp230
F3.7366713205784827
s(I288
I2
tp231
F-570.2819625832597
s(I208
I1
tp232
F-0.9050215434297033
s(I185
I1
tp233
F-0.7123062864171591
s(I4
I1
tp234
F-0.9998706484734968
s(I300
I2
tp235
F-290.3232381855801
s(I301
I3
tp236
F113.34759742447278
s(I40
I1
tp237
F1.716088475908983
s(I143
I3
tp238
F-1.002561420292678
s(I17
I1
tp239
F723.0741910240195
s(I92
I1
tp240
F-0.9539051395918264
s(I266
I1
tp241
F-0.8749906496216374
s(I290
I2
tp242
F-683.9121026522971
s(I132
I2
tp243
F-330.1504580436072
s(I231
I3
tp244
F241.95379238592028
s(I168
I2
tp245
F-1670.9332044520756
s(I271
I2
tp246
F-6924.4757492272975
s(I295
I1
tp247
F380.8677031190262
s(I11
I3
tp248
F-0.8567755241627611
s(I220
I2
tp249
F-5215.007345594114
s(I307
I2
tp250
F-536.5084749713891
s(I260
I3
tp251
F-1.2386564001259985
s(I221
I3
tp252
F319.50963553562104
s(I63
I3
tp253
F110.56336197520841
s(I261
I2
tp254
F-2778.8477807171903
s(I1
I3
tp255
F-0.9998578332531839
s(I186
I1
tp256
F20.55337197263627
s(I210
I2
tp257
F-19.942067022075573
s(I297
I2
tp258
F-31.52914014879876
s(I52
I2
tp259
F-2403.0001568632824
s(I53
I3
tp260
F90.29893568862913
s(I238
I1
tp261
F6.7004116430339025
s(I6
I2
tp262
F-444.010909755608
s(I191
I2
tp263
F-214.2593905770442
s(I215
I1
tp264
F3.881812516399112
s(I302
I3
tp265
F130.6391767979415
s(I128
I3
tp266
F150.35537517948862
s(I89
I3
tp267
F564.1713565129933
s(I18
I1
tp268
F-1.262698005523685
s(I42
I2
tp269
F-660.2415960854764
s(I129
I2
tp270
F-525.1820753777346
s(I227
I2
tp271
F-4191.521400949531
s(I251
I1
tp272
F2.9100024266882993
s(I180
I3
tp273
F278.54942309979236
s(I70
I1
tp274
F-0.7144293939678515
s(I94
I2
tp275
F-758.1417979420066
s(I23
I2
tp276
F-177.02890204451955
s(I47
I1
tp277
F-0.9664550721638331
s(I216
I3
tp278
F-1.1303257284482855
s(I106
I1
tp279
F-0.9607275872261934
s(I280
I1
tp280
F-0.9580425333591602
s(I59
I2
tp281
F-732.6324024037592
s(I83
I1
tp282
F-0.9719376779576571
s(I257
I1
tp283
F-0.6642567109437639
s(I12
I3
tp284
F-0.99366268965624
s(I128
I1
tp285
F-2256.674658493302
s(I13
I2
tp286
F-720.0241767298193
s(I222
I3
tp287
F190.11229348779614
s(I48
I3
tp288
F-531.0518229612553
s(I209
I1
tp289
F2.909054642508937
s(I217
I2
tp290
F-2440.2581455692793
s(I54
I3
tp291
F-1.0046685781854225
s(I141
I1
tp292
F-0.7278618791930108
s(I200
I1
tp293
F18.87190159338751
s(I303
I3
tp294
F162.4701834641158
s(I90
I3
tp295
F-1934.6452048625767
s(I252
I1
tp296
F3.4515315822559125
s(I229
I1
tp297
F292.87097123350463
s(I293
I3
tp298
F98.35467103655627
s(I9
I1
tp299
F-0.9895047665799213
s(I117
I2
tp300
F-7546.5026203282805
s(I84
I1
tp301
F-0.9850626703705848
s(I258
I1
tp302
F4.268542467355805
s(I282
I2
tp303
F-751.5232613069343
s(I120
I1
tp304
F-0.9906748950629602
s(I223
I3
tp305
F278.29732365329687
s(I263
I2
tp306
F-2803.182930545043
s(I287
I1
tp307
F142.5413144556876
s(I3
I3
tp308
F-0.9978935528063886
s(I212
I2
tp309
F-363.40387207881076
s(I299
I2
tp310
F-271.43579380775793
s(I213
I3
tp311
F-57.882319017760246
s(I55
I3
tp312
F-1.0232979800915323
s(I142
I1
tp313
F-0.971756408443996
s(I248
I2
tp314
F-553.4948878142031
s(I288
I3
tp315
F9.543265249782445
s(I249
I3
tp316
F-1.6913702504507162
s(I91
I3
tp317
F-1.01983252794879
s(I202
I2
tp318
F-592.0373313911588
s(I289
I2
tp319
F-369.11348543696585
s(I44
I2
tp320
F-395.8272996973952
s(I131
I2
tp321
F-1250.8551611079538
s(I155
I1
tp322
F1.9212810959136437
s(I45
I3
tp323
F426.33643675572
s(I230
I1
tp324
F3.7692453742521597
s(I254
I2
tp325
F-754.5575741296442
s(I80
I2
tp326
F-1640.0049981982993
s(I183
I2
tp327
F-26.04130336713247
s(I207
I1
tp328
F5.4290218507881445
s(I294
I3
tp329
F3.609628994522805
s(I81
I3
tp330
F-0.9888932665335518
s(I10
I1
tp331
F-329.99257066619964
s(I219
I2
tp332
F-520.4494991210122
s(I243
I1
tp333
F505.7157489839301
s(I15
I2
tp334
F-119.1181526292166
s(I39
I1
tp335
F4521.239885434352
s(I208
I3
tp336
F12.011432357949442
s(I256
I2
tp337
F-1872.5610536260026
s(I209
I2
tp338
F-1697.3284269626251
s(I264
I1
tp339
F2.539267434026261
s(I51
I2
tp340
F-523.2463537625566
s(I4
I3
tp341
F15.052778730683237
s(I5
I2
tp342
F-2120.000671477456
s(I103
I2
tp343
F-33.631979009660434
s(I214
I3
tp344
F-1.125982924592452
s(I301
I1
tp345
F10.001154600297891
s(I40
I3
tp346
F-1.010927599348677
s(I41
I2
tp347
F-5516.584863693948
s(I250
I3
tp348
F246.56528703566087
s(I92
I3
tp349
F282.48860210463664
s(I93
I2
tp350
F-15.353422989961391
s(I46
I3
tp351
F-1.0242838864899717
s(I192
I1
tp352
F6.642941585439398
s(I295
I3
tp353
F114.51772918227294
s(I82
I3
tp354
F-0.9977467301214721
s(I93
I1
tp355
F-0.9792544217046716
s(I244
I1
tp356
F4.167583703811614
s(I284
I2
tp357
F-766.8112108259902
s(I285
I3
tp358
F180.47924941584137
s(I1
I1
tp359
F-0.9403374809767103
s(I76
I1
tp360
F-0.7517518377426083
s(I274
I2
tp361
F-18.773432361987826
s(I53
I1
tp362
F-0.9893236157751715
s(I215
I3
tp363
F-1.1599923630797464
s(I302
I1
tp364
F8.965722575513585
s(I89
I1
tp365
F-0.9435328731038805
s(I279
I1
tp366
F376.41480511006245
s(I251
I3
tp367
F-1.1431209445238342
s(I204
I2
tp368
F-570.9949387776677
s(I291
I2
tp369
F-368.6393168532589
s(I205
I3
tp370
F-1.128571226525457
s(I47
I3
tp371
F528.3155662024786
s(I240
I2
tp372
F-147.23278250043037
s(I280
I3
tp373
F4.136959743535085
s(I241
I3
tp374
F-1.9855971350316672
s(I83
I3
tp375
F-0.42271795137208545
s(I194
I2
tp376
F-754.7226727640198
s(I281
I2
tp377
F-126.31989282287402
s(I36
I2
tp378
F-4478.795525681588
s(I37
I3
tp379
F-0.6547477582290975
s(I222
I1
tp380
F-0.5860591447230099
s(I246
I2
tp381
F-253.4635419066165
s(I72
I2
tp382
F-21.133675831020632
s(I199
I1
tp383
F5.522284595007484
s(I286
I3
tp384
F-3.5919615867071966
s(I211
I2
tp385
F-200.1595994655578
s(I235
I1
tp386
F-0.9322390199244611
s(I54
I1
tp387
F-0.5234716313636111
s(I78
I2
tp388
F-1016.9633611749483
s(I7
I2
tp389
F-3056.978052712168
s(I200
I3
tp390
F-5.019109832634101
s(I90
I1
tp391
F728.979861912028
s(I201
I2
tp392
F-223.06218858452337
s(I43
I2
tp393
F-752.2948005497014
s(I67
I1
tp394
F172.38631718860233
s(I154
I3
tp395
F1877.722752880842
s(I252
I3
tp396
F-2.475410150864225
s(I253
I2
tp397
F-658.0962057431841
s(I95
I2
tp398
F-585.0188974316785
s(I119
I1
tp399
F-0.9903997045951052
s(I206
I3
tp400
F7.899272328212107
s(I293
I1
tp401
F6.018379724320277
s(I242
I3
tp402
F266.63368084028826
s(I84
I3
tp403
F-0.43932001460505904
s(I38
I3
tp404
F-0.9933647250006448
s(I120
I3
tp405
F10.297267974159046
s(I292
I2
tp406
F-329.09213293470197
s(I184
I1
tp407
F0.945127591881254
s(I287
I3
tp408
F9.358179886119478
s(I236
I1
tp409
F-0.8239005140623082
s(I213
I1
tp410
F14.52807909399423
s(I277
I3
tp411
F-0.9019591685381867
s(I16
I1
tp412
F-0.9949198202871493
s(I249
I1
tp413
F4.208512332097323
s(I68
I1
tp414
F-0.9718478727118061
s(I155
I3
tp415
F324.1752300191347
s(I266
I2
tp416
F-771.772831532493
s(I45
I1
tp417
F-0.9188735930148814
s(I104
I1
tp418
F359.7500869920206
s(I207
I3
tp419
F-4.136199040649128
s(I294
I1
tp420
F301.2002309232621
s(I144
I2
tp421
F-1875.9109557191514
s(I271
I1
tp422
F449.10935855684994
s(I243
I3
tp423
F232.25462285131272
s(I196
I2
tp424
F-796.0415619252534
s(I283
I2
tp425
F-584.128929398579
s(I307
I1
tp426
F288.09432029326433
s(I197
I3
tp427
F-1.046771021826192
s(I39
I3
tp428
F135.21312935827876
s(I232
I2
tp429
F-285.6480740591411
s(I272
I3
tp430
F470.69111905317084
s(I233
I3
tp431
F-1.655117596188514
s(I186
I2
tp432
F-108.27564256538858
s(I273
I2
tp433
F-574.9072526456177
s(I214
I1
tp434
F5.275941413146584
s(I238
I2
tp435
F-281.66163100619076
s(I64
I2
tp436
F-87.14823063241565
s(I167
I2
tp437
F-10268.191033421685
s(I191
I1
tp438
F2.358945152341248
s(I278
I3
tp439
F-0.8054016279373777
s(I65
I3
tp440
F-1.010057308887249
s(I250
I1
tp441
F-0.6184650005650718
s(I18
I2
tp442
F-39.142908555498984
s(I116
I2
tp443
F-111.43592410437017
s(I203
I2
tp444
F-232.62161778604496
s(I227
I1
tp445
F5.023277721274786
s(I156
I3
tp446
F-1.195002437899278
s(I117
I3
tp447
F234.00888945654353
s(I46
I1
tp448
F-0.6923067294713102
s(I70
I2
tp449
F-15.144078905264307
s(I255
I2
tp450
F-214.1568692489427
s(I23
I1
tp451
F300.0850427109559
s(I192
I3
tp452
F-1125.7562179398014
s(I82
I1
tp453
F228.3614264346555
s(I106
I2
tp454
F-255.06855066513245
s(I256
I1
tp455
F-0.7810730544189071
s(I59
I1
tp456
F-0.9657119537704257
s(I244
I3
tp457
F-1.0401484967919261
s(I69
I2
tp458
F-6011.374102764509
s(I245
I2
tp459
F-907.6655891759265
s(I198
I3
tp460
F9.182213890424487
s(I285
I1
tp461
F17.28951648661779
s(I276
I2
tp462
F-168.47807135397417
s(I221
I2
tp463
F-4170.689697846555
s(I234
I3
tp464
F-1.0746925748293434
s(I76
I3
tp465
F-1.0022826103159304
s(I77
I2
tp466
F-5582.542508921625
s(I279
I3
tp467
F-0.3117392240115035
s(I66
I3
tp468
F-0.6929670470895027
s(I225
I2
tp469
F-18.67469575341785
s(I228
I1
tp470
F-0.908650467342988
s(I118
I3
tp471
F-0.6071025212724196
s(I205
I1
tp472
F4.30158932826823
s(I269
I3
tp473
F122.95912874972514
s(I8
I1
tp474
F-0.9784140724698316
s(I241
I1
tp475
F4.5447029312270715
s(I105
I2
tp476
F-638.0804783141326
s(I305
I3
tp477
F263.09073452407455
s(I60
I1
tp478
F-809.9027674619329
s(I258
I2
tp479
F-216.64464063840177
s(I37
I1
tp480
F-0.9986792722309078
s(I96
I1
tp481
F-0.986142916008616
s(I199
I3
tp482
F-13.806712089699786
s(I286
I1
tp483
F214.91114583971515
s(I263
I1
tp484
F287.92033873215746
s(I235
I3
tp485
F7.7197101261261745
s(I188
I2
tp486
F-640.4376372786664
s(I275
I2
tp487
F-7431.026554017032
s(I299
I1
tp488
F3.0745246053805046
s(I189
I3
tp489
F-0.33499536762377274
s(I142
I2
tp490
F-15.219235326118735
s(I224
I2
tp491
F-17.649559185879664
s(I264
I3
tp492
F-1.0129822511690383
s(I225
I3
tp493
F-0.5905426604351688
s(I67
I3
tp494
F-0.9979938639112245
s(I154
I1
tp495
F786.0928047631888
s(I265
I2
tp496
F-18.584998267942144
s(I20
I2
tp497
F-15.117087570855901
s(I131
I1
tp498
F2030.4921860089064
s(I21
I3
tp499
F-0.9930280795575052
s(I119
I3
tp500
F168.21361324853913
s(I206
I1
tp501
F-0.8105313210778455
s(I230
I2
tp502
F-20.692431963158345
s(I56
I2
tp503
F-15.328689442804214
s(I183
I1
tp504
F-0.8306994641268983
s(I270
I3
tp505
F2.8142458759175915
s(I57
I3
tp506
F330.3013528735484
s(I242
I1
tp507
F-0.2755457535131241
s(I10
I2
tp508
F-438.05170544125673
s(I108
I2
tp509
F-704.1872187593015
s(I195
I2
tp510
F-799.6438832267163
s(I219
I1
tp511
F-1.51795448807285
s(I306
I3
tp512
F240.3224519270718
s(I38
I1
tp513
F-0.687606877485974
s(I247
I2
tp514
F-1968.8564810684195
s(I15
I1
tp515
F-0.8716855919271308
s(I184
I3
tp516
F-0.9532139962530827
s(I197
I1
tp517
F10.715823237757425
s(I185
I2
tp518
F-189.93476241238184
s(I268
I1
tp519
F-0.9229018232466598
s(I51
I1
tp520
F-0.4817036113503682
s(I236
I3
tp521
F5.294421725436165
s(I300
I1
tp522
F4.2233358788547255
s(I79
I2
tp523
F-694.0694871089208
s(I103
I1
tp524
F-0.7325552145382997
s(I190
I3
tp525
F-1.1654406991728785
s(I277
I1
tp526
F3.5456202851084875
s(I16
I3
tp527
F-0.9322942457804656
s(I17
I2
tp528
F-7624.809810595407
s(I115
I2
tp529
F-15.248148681375005
s(I226
I3
tp530
F-0.8279091232032504
s(I68
I3
tp531
F174.3126821096238
s(I132
I1
tp532
F-0.4973190558943877
s(I22
I3
tp533
F10.100592991246199
s(I104
I3
tp534
F-0.7998899502261965
s(I168
I1
tp535
F1.3138346479599452
s(I271
I3
tp536
F-179.04182657324213
s(I58
I3
tp537
F-0.8490380397871121
s(I81
I1
tp538
F158.39824771828725
s(I220
I1
tp539
F1.394227354459035
s(I307
I3
tp540
F50.800215316156205
s(I260
I2
tp541
F-352.995725549918
s(I261
I3
tp542
F1.3535236730814932
s(I304
I1
tp543
F204.32009209189198
s(I233
I1
tp544
F4.692138273295074
s(I297
I3
tp545
F0.10649645459299803
s(I52
I1
tp546
F-0.582029514282344
s(I191
I3
tp547
F21.581154687623478
s(I278
I1
tp548
F58.06665808109393
s(I302
I2
tp549
F-166.45114147796505
s(I128
I2
tp550
F-141.2723097878852
s(I129
I3
tp551
F-1.019763499148228
s(I227
I3
tp552
F-1.0761808081506818
s(I180
I2
tp553
F-6763.580936875185
s(I267
I2
tp554
F-120.20559368313302
s(I291
I1
tp555
F149.47787993891606
s(I23
I3
tp556
F-0.9943046632242047
s(I216
I2
tp557
F-489.93650949880004
s(I256
I3
tp558
F3.250394386547697
s(I217
I3
tp559
F-1.1001350502240435
s(I59
I3
tp560
F-0.5717059996320027
s(I257
I2
tp561
F-570.4266690152941
s(I12
I2
tp562
F-312.05974565206975
s(I13
I3
tp563
F650.114025244556
s(I198
I1
tp564
F-3.5995217907087675
s(I222
I2
tp565
F-28.74881330488827
s(I48
I2
tp566
F-51.29391814949019
s(I262
I3
tp567
F349.16877467573704
s(I234
I1
tp568
F7.795083748927701
s(I187
I2
tp569
F-606.7793613888293
s(I211
I1
tp570
F113.65268676296417
s(I298
I3
tp571
F53.21613862444822
s(I54
I2
tp572
F-339.20743429929064
s(I141
I2
tp573
F-391.07954087408666
s(I239
I2
tp574
F-734.7568371062652
s(I7
I1
tp575
F787.9888379964978
s(I66
I1
tp576
F-197.95814273745543
s(I90
I2
tp577
F-549.0472088464699
s(I19
I2
tp578
F-114.01096772576682
s(I43
I1
tp579
F-0.6075792299778418
s(I130
I3
tp580
F-0.9864624115097077
s(I228
I3
tp581
F14.674244136809882
s(I118
I1
tp582
F3452.7837659370985
s(I292
I1
tp583
F5.574216912872322
s(I71
I2
tp584
F-39.10967643648992
s(I95
I1
tp585
F370.39931792595416
s(I182
I3
tp586
F210.41520640790858
s(I269
I1
tp587
F164.25408200872482
s(I8
I3
tp588
F-1.0000044260389014
s(I9
I2
tp589
F-114.01262334964932
s(I107
I2
tp590
F-282.1904377370776
s(I218
I3
tp591
F-2.984979718532154
s(I305
I1
tp592
F47.966776147187865
s(I60
I3
tp593
F-0.7392914093644496
s(I65
I1
tp594
F-0.5711517282703685
s(I14
I3
tp595
F-0.7085521742568585
s(I96
I3
tp596
F220.2875939760436
s(I280
I2
tp597
F-440.65933011154715
s(I263
I3
tp598
F-2631.6828111111176
s(I50
I3
tp599
F-1.0514192098798665
s(I212
I1
tp600
F-201.17165734453195
s(I299
I3
tp601
F119.26074840946282
s(I102
I3
tp602
F-1.0181245953148155
s(I189
I1
tp603
F901.0385471621653
s(I248
I1
tp604
F2.839564202021772
s(I225
I1
tp605
F289.4964594211911
s(I289
I3
tp606
F-10.164389602175142
s(I44
I1
tp607
F2414.1801722850314
s(I131
I3
tp608
F-0.7972130897806206
s(I21
I1
tp609
F248.0754087658347
s(I80
I1
tp610
F182.34118749732173
s(I183
I3
tp611
F235.66824230062684
s(I270
I1
tp612
F-5.771548549239663
s(I294
I2
tp613
F-6194.725823046909
s(I57
I1
tp614
F108.0719066759852
s(I117
I1
tp615
F262.33433264020636
s(I219
I3
tp616
F4.086430238478515
s(I306
I1
tp617
F46.48260557879018
s(I259
I2
tp618
F-276.5485039482188
s(I283
I1
tp619
F108.38939336560452
s(I15
I3
tp620
F-1.001963191672918
s(I208
I2
tp621
F-344.41437255148725
s(I209
I3
tp622
F-2.727659263113826
s(I51
I3
tp623
F-1.007800659220279
s(I4
I2
tp624
F-339.0054720465293
s(I300
I3
tp625
F95.916668566857
s(I5
I3
tp626
F-0.9998610350291649
s(I103
I3
tp627
F-1.2020251046109616
s(I190
I1
tp628
F5.184033521981384
s(I214
I2
tp629
F-33.28030938133307
s(I301
I2
tp630
F-127.17623379601768
s(I40
I2
tp631
F-8960.15286362441
s(I143
I2
tp632
F-1119.0090192099528
s(I167
I1
tp633
F-0.9284132152818075
s(I41
I3
tp634
F230.2126849826827
s(I226
I1
tp635
F151.8359000600094
s(I250
I2
tp636
F-221.06959482462233
s(I92
I2
tp637
F-129.25190879400313
s(I203
I1
tp638
F632.1268458175712
s(I290
I3
tp639
F113.20469148830196
s(I132
I3
tp640
F-1.0078176566453916
s(I93
I3
tp641
F-0.570412084382678
s(I22
I1
tp642
F-0.9987557026139526
s(I46
I2
tp643
F-1092.1414635169026
s(I231
I2
tp644
F-35.121246471286874
s(I255
I1
tp645
F-363.41347348255806
s(I168
I3
tp646
F-1.0067472745545079
s(I58
I1
tp647
F3069.24780824218
s(I82
I2
tp648
F-742.077605078798
s(I11
I2
tp649
F-4209.7150440280675
s(I220
I3
tp650
F794.9208574038423
s(I284
I1
tp651
F124.78506369610557
s(I63
I2
tp652
F-625.2207801924504
s(I261
I1
tp653
F1399.4327052887213
s(I264
I2
tp654
F-17.650082320271046
s(I1
I2
tp655
F-350.01142059289293
s(I272
I1
tp656
F-0.1506554874941746
s(I210
I3
tp657
F-1.52073800219623
s(I297
I1
tp658
F35.67633150413765
s(I52
I3
tp659
F-0.9832651962422198
s(I53
I2
tp660
F-1778.9807085956602
s(I6
I3
tp661
F-0.9734120564591395
s(I89
I2
tp662
F-1020.0162630457718
s(I42
I3
tp663
F-0.5375758408557424
s(I129
I1
tp664
F194.42986623169165
s(I204
I1
tp665
F3.6538869292475327
s(I291
I3
tp666
F4.204791388252454
s(I94
I3
tp667
F-0.5339838095608149
s(I240
I1
tp668
F7.6219092695681026
s(I217
I1
tp669
F4.865281978159621
s(I281
I3
tp670
F-9.393151636262857
s(I36
I1
tp671
F-0.9796777384304661
s(I13
I1
tp672
F-0.9712536324013852
s(I72
I1
tp673
F-0.9924767816802168
s(I262
I1
tp674
F-0.1996025035351212
s(I286
I2
tp675
F-808.5135901479047
s(I211
I3
tp676
F-1.566723862894633
s(I298
I1
tp677
F1.2483287211699134
s(I275
I1
tp678
F1554.5835957734973
s.