(dp0
(I7
I3
tp1
F255.1817721895568
s(I200
I2
tp2
F339.39818033453
s(I303
I2
tp3
F157.44098379044368
s(I201
I3
tp4
F318.9051128469139
s(I43
I3
tp5
F319.54308367068063
s(I130
I1
tp6
F280.4841557898843
s(I154
I2
tp7
F318.15792912534056
s(I252
I2
tp8
F325.0684836553395
s(I292
I3
tp9
F342.6251375075879
s(I253
I3
tp10
F335.7024045309792
s(I95
I3
tp11
F325.86304790839716
s(I182
I1
tp12
F321.95388688952823
s(I206
I2
tp13
F315.4082935212457
s(I293
I2
tp14
F347.53636937102937
s(I218
I1
tp15
F350.8101555000709
s(I242
I2
tp16
F346.4079142667889
s(I84
I2
tp17
F327.8204567994446
s(I195
I1
tp18
F308.2799893865082
s(I282
I3
tp19
F325.97443462499984
s(I14
I1
tp20
F144.85698395177513
s(I38
I2
tp21
F319.96893868460654
s(I120
I2
tp22
F366.62365150835086
s(I223
I2
tp23
F300.0904411881617
s(I247
I1
tp24
F319.34431019924574
s(I50
I1
tp25
F310.6637134142674
s(I193
I2
tp26
F332.1034092854766
s(I3
I2
tp27
F347.98930868170225
s(I212
I3
tp28
F348.74022985740714
s(I102
I1
tp29
F303.3963597811082
s(I213
I2
tp30
F340.42418258401557
s(I55
I2
tp31
F343.8405629450378
s(I79
I1
tp32
F303.7890410061142
s(I248
I3
tp33
F327.9525924543382
s(I249
I2
tp34
F359.5328047095047
s(I91
I2
tp35
F350.8278380092842
s(I115
I1
tp36
F297.03380834208406
s(I202
I3
tp37
F338.64590535654395
s(I289
I1
tp38
F208.30877515905274
s(I44
I3
tp39
F325.71139259206126
s(I45
I2
tp40
F318.96952342009945
s(I254
I3
tp41
F326.9714561617646
s(I80
I3
tp42
F397.71983700322136
s(I144
I1
tp43
F136.84946688223437
s(I93
I2
tp44
F333.7857629294388
s(I196
I1
tp45
F322.4802089950955
s(I283
I3
tp46
F325.5708026860073
s(I300
I2
tp47
F314.3872824609271
s(I232
I1
tp48
F318.57776707043377
s(I272
I2
tp49
F332.67105700491686
s(I273
I3
tp50
F358.0399167847089
s(I5
I1
tp51
I-1
s(I64
I1
tp52
F213.9213704827921
s(I167
I3
tp53
F351.9901102487341
s(I278
I2
tp54
F314.26391359201386
s(I41
I1
tp55
F322.72855847295534
s(I116
I1
tp56
F259.64690396260954
s(I203
I3
tp57
F350.04074551256184
s(I290
I1
tp58
F324.3378742479737
s(I156
I2
tp59
F320.19219851547587
s(I267
I1
tp60
F337.2645308088593
s(I255
I3
tp61
F344.7159707451309
s(I192
I2
tp62
F359.5969545918647
s(I295
I2
tp63
F347.0453366575219
s(I193
I3
tp64
F332.3249766628994
s(I244
I2
tp65
F317.61803310595565
s(I284
I3
tp66
F374.60093115751084
s(I245
I3
tp67
F366.4959907908542
s(I198
I2
tp68
F375.51868127127227
s(I285
I2
tp69
F348.6682286575312
s(I210
I1
tp70
F315.3280350174436
s(I234
I2
tp71
F358.1944166472299
s(I76
I2
tp72
F376.8155248202194
s(I187
I1
tp73
F330.32041419776675
s(I274
I3
tp74
F316.1767622924842
s(I77
I3
tp75
F312.64973403831425
s(I6
I1
tp76
F326.85637961651474
s(I215
I2
tp77
F336.6940309169684
s(I239
I1
tp78
F310.34368412470997
s(I42
I1
tp79
F256.95540339208594
s(I66
I2
tp80
F323.91103074771473
s(I251
I2
tp81
F331.90934773218567
s(I19
I1
tp82
F119.6798271225782
s(I204
I3
tp83
F358.6794706735552
s(I94
I1
tp84
F268.40258707673627
s(I118
I2
tp85
F334.84274489110953
s(I205
I2
tp86
F319.0622427733657
s(I47
I2
tp87
F355.86739867651085
s(I71
I1
tp88
F278.671071258247
s(I240
I3
tp89
F327.19507357305497
s(I241
I2
tp90
F320.9626618962491
s(I83
I2
tp91
F344.3832450680166
s(I107
I1
tp92
F294.8360447230696
s(I194
I3
tp93
F311.7795520036801
s(I281
I1
tp94
F331.91886624508885
s(I36
I3
tp95
F321.08451536597534
s(I69
I1
tp96
F267.533983881566
s(I37
I2
tp97
F319.90879908227487
s(I246
I3
tp98
F324.4884386653012
s(I72
I3
tp99
F337.9224801255144
s(I221
I1
tp100
F310.0113404070527
s(I229
I2
tp101
F366.3112934979739
s(I188
I1
tp102
F318.3707211311064
s(I275
I3
tp103
F382.90026556684774
s(I78
I3
tp104
F314.17091944671176
s(I224
I1
tp105
F325.98747596001846
s(I201
I1
tp106
F322.9644981538763
s(I265
I3
tp107
F358.8573699272098
s(I20
I1
tp108
F155.54209575834415
s(I253
I1
tp109
F325.18727561587764
s(I56
I1
tp110
F313.2483736242465
s(I270
I2
tp111
F313.82503876936653
s(I105
I1
tp112
F263.7611694754983
s(I108
I1
tp113
F346.1684773057295
s(I195
I3
tp114
F323.45410582511425
s(I282
I1
tp115
F302.6372723345931
s(I306
I2
tp116
F331.38130314328185
s(I259
I1
tp117
F323.27297576391214
s(I247
I3
tp118
F370.9194223482537
s(I184
I2
tp119
F332.4745799716702
s(I287
I2
tp120
F322.8410756966551
s(I185
I3
tp121
F346.38762612509777
s(I236
I2
tp122
F340.17936362637874
s(I276
I3
tp123
F314.38306302444977
s(I237
I3
tp124
F339.38581354715643
s(I79
I3
tp125
F339.6514168402972
s(I190
I2
tp126
F333.50225735401517
s(I277
I2
tp127
F319.96873033996786
s(I16
I2
tp128
F336.5132520448959
s(I143
I1
tp129
F293.9760416083086
s(I17
I3
tp130
F329.19989754803186
s(I115
I3
tp131
F334.4289615014037
s(I202
I1
tp132
F317.77870613663197
s(I226
I2
tp133
F322.9801346378519
s(I68
I2
tp134
F353.7322344377303
s(I155
I2
tp135
F327.4751271664011
s(I266
I3
tp136
F333.9820909536643
s(I69
I3
tp137
F355.99867124791984
s(I254
I1
tp138
F305.4286542180405
s(I22
I2
tp139
F322.48724016888366
s(I104
I2
tp140
F325.86946077570695
s(I207
I2
tp141
F323.3379810281253
s(I231
I1
tp142
F304.6097340031647
s(I144
I3
tp143
F409.36195880118237
s(I105
I3
tp144
F325.32333211218537
s(I58
I2
tp145
F320.21116178986574
s(I243
I2
tp146
F351.93439536351144
s(I11
I1
tp147
F173.7671378422493
s(I196
I3
tp148
F305.7832764982348
s(I197
I2
tp149
F340.3015453408008
s(I39
I2
tp150
F322.2647791866308
s(I63
I1
tp151
F323.617897982807
s(I232
I3
tp152
F313.1072935908553
s(I205
I1
tp153
F321.31145118154893
s(I233
I2
tp154
F345.42109351464603
s(I276
I1
tp155
F325.49394574417636
s(I186
I3
tp156
F327.65900971292206
s(I273
I1
tp157
F368.20087215601177
s(I238
I3
tp158
F311.6015296190252
s(I64
I3
tp159
F345.1051190862613
s(I65
I2
tp160
F341.8671840348589
s(I18
I3
tp161
F332.6315733365793
s(I116
I3
tp162
F339.7188949190698
s(I117
I2
tp163
F350.172933493247
s(I267
I3
tp164
F331.06922772797765
s(I70
I3
tp165
F320.97594586344155
s(I216
I1
tp166
F314.9957317635959
s(I106
I3
tp167
F325.97248874872287
s(I193
I1
tp168
F315.47757844882284
s(I257
I3
tp169
F318.9225369650215
s(I12
I1
tp170
F171.6973195712734
s(I263
I3
tp171
F320.4506884029372
s(I245
I1
tp172
F318.150578560625
s(I304
I2
tp173
F324.04456812347667
s(I48
I1
tp174
F318.1049587812907
s(I262
I2
tp175
F319.56224579828717
s(I187
I3
tp176
F356.4680463078211
s(I274
I1
tp177
F331.6699857207129
s(I298
I2
tp178
F302.51361096320795
s(I77
I1
tp179
F330.95968808433025
s(I141
I3
tp180
F317.321944379299
s(I239
I3
tp181
F377.64360812407074
s(I279
I2
tp182
F358.7376725689819
s(I303
I1
tp183
F463.1461532476286
s(I19
I3
tp184
F326.03168534974225
s(I130
I2
tp185
F315.8683199422475
s(I228
I2
tp186
F356.514951658834
s(I268
I3
tp187
F325.2243829654377
s(I229
I3
tp188
F327.79883441644097
s(I71
I3
tp189
F345.08547555906017
s(I182
I2
tp190
F327.7833536861221
s(I269
I2
tp191
F330.8900425027256
s(I8
I2
tp192
F156.68617679481846
s(I304
I3
tp193
F416.99792061671826
s(I9
I3
tp194
F153.6379405217965
s(I107
I3
tp195
F332.1654815133304
s(I194
I1
tp196
F310.9080544706431
s(I218
I2
tp197
F342.6102677210931
s(I305
I2
tp198
F345.86908919150807
s(I60
I2
tp199
F323.87403625717326
s(I258
I3
tp200
F343.170728689908
s(I246
I1
tp201
F323.20644282408784
s(I14
I2
tp202
F342.540368594481
s(I96
I2
tp203
F390.27703399947325
s(I199
I2
tp204
F331.55524524033063
s(I223
I1
tp205
F316.2078546802411
s(I50
I2
tp206
F322.5071031499004
s(I260
I1
tp207
F318.1853776323446
s(I235
I2
tp208
F336.0646819675739
s(I3
I1
tp209
F347.3781561900411
s(I188
I3
tp210
F323.9517268977384
s(I78
I1
tp211
F281.43025105248034
s(I102
I2
tp212
F352.78108390264373
s(I189
I2
tp213
F340.37796706973637
s(I55
I1
tp214
F288.47062239807144
s(I142
I3
tp215
F378.2060042135327
s(I224
I3
tp216
F370.73454942055497
s(I288
I1
tp217
F249.86889194172022
s(I67
I2
tp218
F364.31435592386896
s(I91
I1
tp219
F290.5498086915595
s(I265
I1
tp220
F304.3377762275742
s(I20
I3
tp221
F333.3991066421399
s(I21
I2
tp222
F364.4893303394208
s(I119
I2
tp223
F335.5655424407296
s(I230
I3
tp224
F335.90492156709763
s(I56
I3
tp225
F316.2853435129767
s(I57
I2
tp226
F359.98117133642154
s(I10
I3
tp227
F354.069374813107
s(I108
I3
tp228
F331.9228085803587
s(I81
I2
tp229
F342.72012689023103
s(I259
I3
tp230
F347.07561216998306
s(I288
I2
tp231
F331.918892395836
s(I208
I1
tp232
F392.83904947556243
s(I185
I1
tp233
F309.74273304786544
s(I4
I1
tp234
F38.074817444254535
s(I237
I1
tp235
F337.284142375116
s(I301
I3
tp236
F321.6418070185919
s(I40
I1
tp237
F287.65526541061115
s(I143
I3
tp238
F328.9222414809272
s(I17
I1
tp239
F146.31453578545467
s(I92
I1
tp240
F319.7506776643674
s(I266
I1
tp241
F354.75255019825306
s(I290
I2
tp242
F370.56225115730956
s(I132
I2
tp243
F318.8055207467829
s(I231
I3
tp244
F347.1969597102943
s(I168
I2
tp245
F338.9440737899903
s(I271
I2
tp246
F379.0104262896642
s(I295
I1
tp247
F376.1853083807911
s(I11
I3
tp248
F322.5729728935234
s(I220
I2
tp249
F364.7378741226969
s(I307
I2
tp250
F323.4486248698132
s(I260
I3
tp251
F323.459355204171
s(I221
I3
tp252
F348.2268646881056
s(I63
I3
tp253
F315.5864341819995
s(I261
I2
tp254
F323.3021650079794
s(I1
I3
tp255
F245.12581914984878
s(I186
I1
tp256
F371.90250042675046
s(I210
I2
tp257
F315.0789655236692
s(I297
I2
tp258
F329.22297727258353
s(I52
I2
tp259
F311.4952951682172
s(I53
I3
tp260
F347.29097425726815
s(I238
I1
tp261
F319.47398488333886
s(I6
I2
tp262
F334.7362706006569
s(I191
I2
tp263
F314.83534497074623
s(I215
I1
tp264
F378.05818098023775
s(I302
I3
tp265
F334.0900461757898
s(I128
I3
tp266
F360.9926093781531
s(I89
I3
tp267
F325.96816980024613
s(I18
I1
tp268
F116.65239016857615
s(I42
I2
tp269
F318.5532682254696
s(I129
I2
tp270
F332.33342830750155
s(I227
I2
tp271
F348.15933746869666
s(I251
I1
tp272
F331.26119557051896
s(I180
I3
tp273
F331.54402648236237
s(I70
I1
tp274
F294.9753748496894
s(I94
I2
tp275
F349.525668281173
s(I23
I2
tp276
F360.8451039568996
s(I47
I1
tp277
F318.2059929197447
s(I216
I3
tp278
F317.2974492997247
s(I106
I1
tp279
F328.0737814729005
s(I280
I1
tp280
F337.46636965130733
s(I59
I2
tp281
F336.8474364273125
s(I83
I1
tp282
F281.8543911336158
s(I257
I1
tp283
F318.89348747968216
s(I12
I3
tp284
F339.0609357373048
s(I128
I1
tp285
F399.72631442034725
s(I13
I2
tp286
F323.0762729953515
s(I222
I3
tp287
F327.4700800211237
s(I48
I3
tp288
F341.7463735708145
s(I209
I1
tp289
F338.6393188943589
s(I217
I2
tp290
F353.7308290112612
s(I54
I3
tp291
F312.30418885107656
s(I141
I1
tp292
F321.85511329204303
s(I200
I1
tp293
F369.8011823421355
s(I303
I3
tp294
F352.18113326478516
s(I90
I3
tp295
F322.5972136192973
s(I252
I1
tp296
F325.3440969951857
s(I229
I1
tp297
F315.1923856344896
s(I293
I3
tp298
F324.28130805182093
s(I9
I1
tp299
F62.13297642030733
s(I180
I1
tp300
F335.6515397325727
s(I84
I1
tp301
F221.4979291616969
s(I258
I1
tp302
F323.18967939494917
s(I282
I2
tp303
F340.0714985713335
s(I120
I1
tp304
F341.2294419923103
s(I223
I3
tp305
F380.4319496652869
s(I263
I2
tp306
F340.438611806646
s(I287
I1
tp307
F305.80531984552135
s(I3
I3
tp308
F332.2022029698939
s(I212
I2
tp309
F330.893395194539
s(I299
I2
tp310
F328.95796607576483
s(I213
I3
tp311
F319.4349019977296
s(I55
I3
tp312
F325.1132768378227
s(I142
I1
tp313
F235.82727414173098
s(I248
I2
tp314
F350.9441430325028
s(I288
I3
tp315
F348.4266526700103
s(I249
I3
tp316
F324.3389913092851
s(I91
I3
tp317
F312.2312905505555
s(I202
I2
tp318
F327.03750762012294
s(I289
I2
tp319
F330.44996510120154
s(I44
I2
tp320
F320.26193691982155
s(I131
I2
tp321
F372.5961722574666
s(I155
I1
tp322
F330.0771705581981
s(I45
I3
tp323
F360.1145645805275
s(I230
I1
tp324
F395.3138920439018
s(I254
I2
tp325
F354.22084758498886
s(I80
I2
tp326
F328.0104747346769
s(I183
I2
tp327
F390.91233014756506
s(I207
I1
tp328
F324.80212304970877
s(I294
I3
tp329
F351.4243559588715
s(I81
I3
tp330
F323.3358599311308
s(I10
I1
tp331
F126.57520040927781
s(I219
I2
tp332
F334.4784815153223
s(I243
I1
tp333
F313.48187042375673
s(I15
I2
tp334
F336.48453612782043
s(I39
I1
tp335
F322.6864991686389
s(I208
I3
tp336
F355.5695535984365
s(I256
I2
tp337
F319.4556364564654
s(I209
I2
tp338
F331.3107267085921
s(I264
I1
tp339
F310.1977375082171
s(I51
I2
tp340
F326.9073494971185
s(I4
I3
tp341
F185.80884448627688
s(I5
I2
tp342
F228.88761373312184
s(I103
I2
tp343
F334.47919893117137
s(I214
I3
tp344
F361.309688431363
s(I301
I1
tp345
F300.02148211241524
s(I40
I3
tp346
F312.5637089702953
s(I41
I2
tp347
F359.9072580386658
s(I250
I3
tp348
F328.67725132797597
s(I92
I3
tp349
F365.2643716712172
s(I156
I1
tp350
F288.8865539132121
s(I46
I3
tp351
F318.67519962342146
s(I192
I1
tp352
F393.88282702989716
s(I295
I3
tp353
F310.38449490289423
s(I82
I3
tp354
F337.5013538799247
s(I93
I1
tp355
F286.7011772207785
s(I244
I1
tp356
F318.65670372303924
s(I284
I2
tp357
F333.7333146372167
s(I285
I3
tp358
F345.1285392102843
s(I1
I1
tp359
F33.39447969072295
s(I76
I1
tp360
F326.54031786580236
s(I274
I2
tp361
F356.0906460133016
s(I53
I1
tp362
F271.6024545456747
s(I215
I3
tp363
F330.0112650462611
s(I302
I1
tp364
F355.6509289816687
s(I89
I1
tp365
F270.6610105931318
s(I279
I1
tp366
F321.08463713858777
s(I251
I3
tp367
F323.24956742791335
s(I204
I2
tp368
F327.3478688587388
s(I291
I2
tp369
F319.56248296208423
s(I205
I3
tp370
F333.8934414493418
s(I47
I3
tp371
F311.3484641941869
s(I240
I2
tp372
F379.68480428932213
s(I280
I3
tp373
F324.5155100094472
s(I241
I3
tp374
F338.06060023164144
s(I83
I3
tp375
F339.62153945581184
s(I194
I2
tp376
F339.5840828259991
s(I281
I2
tp377
F311.6216543417954
s(I36
I2
tp378
F370.0237634646634
s(I37
I3
tp379
F352.87765414752573
s(I222
I1
tp380
F317.68963547489506
s(I246
I2
tp381
F344.6704343465316
s(I72
I2
tp382
F357.4262084346699
s(I199
I1
tp383
F360.0494763667693
s(I286
I3
tp384
F326.0057884759126
s(I211
I2
tp385
F365.22327016547075
s(I235
I1
tp386
F351.3670695060929
s(I54
I1
tp387
F318.8085313147939
s(I78
I2
tp388
F335.601660185372
s(I7
I2
tp389
F375.41705117286375
s(I200
I3
tp390
F360.37603842958737
s(I90
I1
tp391
F284.4451823518644
s(I201
I2
tp392
F329.0294371732673
s(I43
I2
tp393
F323.8509159017384
s(I67
I1
tp394
F250.34580893844418
s(I154
I3
tp395
F366.97830752156347
s(I252
I3
tp396
F365.41688450175053
s(I253
I2
tp397
F347.0047146365695
s(I95
I2
tp398
F320.2058897632257
s(I119
I1
tp399
F317.0173621756538
s(I206
I3
tp400
F346.34040651129817
s(I293
I1
tp401
F275.7491782759249
s(I242
I3
tp402
F335.56823187387056
s(I84
I3
tp403
F364.94178490245076
s(I38
I3
tp404
F355.9846073176138
s(I120
I3
tp405
F341.114995204604
s(I292
I2
tp406
F315.693611354695
s(I184
I1
tp407
F315.516327111619
s(I237
I2
tp408
F345.06117780646713
s(I236
I1
tp409
F344.1588197656847
s(I276
I2
tp410
F359.23651043806467
s(I277
I3
tp411
F377.75539167006724
s(I16
I1
tp412
F335.35479761244966
s(I249
I1
tp413
F317.54795818367285
s(I68
I1
tp414
F294.92240325279954
s(I155
I3
tp415
F333.10309713999277
s(I266
I2
tp416
F331.0489899642405
s(I45
I1
tp417
F242.14902492037612
s(I104
I1
tp418
F217.48541796198367
s(I207
I3
tp419
F335.9199426327252
s(I294
I1
tp420
F353.4399807585144
s(I81
I1
tp421
F275.9054377312115
s(I271
I1
tp422
F312.56811269953283
s(I243
I3
tp423
F316.51278173505165
s(I287
I3
tp424
F358.8961756013035
s(I196
I2
tp425
F393.0127925444043
s(I283
I2
tp426
F387.9105492345606
s(I307
I1
tp427
F515.3201112076945
s(I197
I3
tp428
F341.65224311045637
s(I39
I3
tp429
F363.56349544034526
s(I232
I2
tp430
F359.31380081992984
s(I272
I3
tp431
F317.0810818944289
s(I233
I3
tp432
F338.0609194721631
s(I186
I2
tp433
F326.0779419412081
s(I273
I2
tp434
F370.0799217025676
s(I214
I1
tp435
F324.5552027310208
s(I238
I2
tp436
F335.35069609547764
s(I64
I2
tp437
F325.62823536809094
s(I167
I2
tp438
F332.2512813290081
s(I191
I1
tp439
F312.0918764218435
s(I278
I3
tp440
F340.5320583106309
s(I65
I3
tp441
F312.9291048433771
s(I250
I1
tp442
F319.8614776568198
s(I18
I2
tp443
F331.8167516380668
s(I116
I2
tp444
F327.051901316055
s(I203
I2
tp445
F315.3699418212935
s(I227
I1
tp446
F328.3650821869733
s(I156
I3
tp447
F365.49783889176285
s(I117
I3
tp448
F312.5264427518687
s(I46
I1
tp449
F309.38684649855566
s(I70
I2
tp450
F336.9085829511719
s(I255
I2
tp451
F348.7013831002168
s(I23
I1
tp452
F146.43853706548097
s(I192
I3
tp453
F324.4719735124043
s(I82
I1
tp454
F274.8963074589409
s(I106
I2
tp455
F321.2437396401295
s(I256
I1
tp456
F320.52080041287365
s(I59
I1
tp457
F250.96037737905743
s(I244
I3
tp458
F350.55113659833097
s(I132
I1
tp459
F319.61044197127717
s(I245
I2
tp460
F316.9017450935717
s(I198
I3
tp461
F332.71078557816656
s(I285
I1
tp462
F383.7436388673828
s(I213
I1
tp463
F323.05809903270006
s(I221
I2
tp464
F311.9783978059494
s(I234
I3
tp465
F337.1765614457253
s(I76
I3
tp466
F333.7984058331974
s(I77
I2
tp467
F355.62485686389135
s(I279
I3
tp468
F322.65566571344874
s(I66
I3
tp469
F336.57838324586754
s(I228
I1
tp470
F326.3309875659641
s(I118
I3
tp471
F324.6070107988056
s(I268
I2
tp472
F343.1741505476023
s(I269
I3
tp473
F331.63434111994127
s(I8
I1
tp474
F106.54340382502262
s(I241
I1
tp475
F344.29550744108343
s(I105
I2
tp476
F339.5109199309506
s(I305
I3
tp477
F321.82918513603386
s(I60
I1
tp478
F296.4198288007422
s(I258
I2
tp479
F319.072773155016
s(I37
I1
tp480
F284.1303789732455
s(I96
I1
tp481
F302.7975331377171
s(I199
I3
tp482
F342.87267780623927
s(I286
I1
tp483
F320.9113233692338
s(I263
I1
tp484
F309.452159335228
s(I235
I3
tp485
F309.4588605223662
s(I188
I2
tp486
F339.8127580376456
s(I275
I2
tp487
F316.8560630504106
s(I299
I1
tp488
F297.108396632049
s(I189
I3
tp489
F308.3298123329281
s(I142
I2
tp490
F330.166351553062
s(I224
I2
tp491
F329.9777182526548
s(I264
I3
tp492
F358.0365588322244
s(I225
I3
tp493
F382.0741644088626
s(I67
I3
tp494
F317.56490999113925
s(I154
I1
tp495
F299.3767503709878
s(I265
I2
tp496
F323.4830201714678
s(I20
I2
tp497
F366.5357565897475
s(I131
I1
tp498
F272.8697952740482
s(I21
I3
tp499
F334.4842987528086
s(I119
I3
tp500
F319.3223161559567
s(I206
I1
tp501
F321.08885136358475
s(I230
I2
tp502
F349.3986683313709
s(I56
I2
tp503
F368.9414378674286
s(I183
I1
tp504
F320.92924115661594
s(I270
I3
tp505
F356.79100817712384
s(I57
I3
tp506
F326.7900842101877
s(I242
I1
tp507
F331.75730949307206
s(I10
I2
tp508
F213.6621245294081
s(I108
I2
tp509
F315.37995084060503
s(I195
I2
tp510
F341.0678023747131
s(I219
I1
tp511
F377.1037803876882
s(I306
I3
tp512
F326.3440749675486
s(I38
I1
tp513
F317.77615466937846
s(I247
I2
tp514
F320.38125564610186
s(I15
I1
tp515
F90.2941267651791
s(I184
I3
tp516
F351.0213197832733
s(I260
I2
tp517
F403.3575039919171
s(I185
I2
tp518
F330.37365406750644
s(I268
I1
tp519
F393.78844944015265
s(I51
I1
tp520
F245.09367069483238
s(I236
I3
tp521
F383.72030586517025
s(I300
I1
tp522
F316.7788615155477
s(I79
I2
tp523
F358.30551668821033
s(I103
I1
tp524
F297.25811833381897
s(I190
I3
tp525
F391.46294710704404
s(I277
I1
tp526
F318.7194973237795
s(I16
I3
tp527
F351.248918787985
s(I17
I2
tp528
F328.6500593733945
s(I115
I2
tp529
F332.6763064961648
s(I226
I3
tp530
F416.25366919288626
s(I68
I3
tp531
F310.79246989359734
s(I69
I2
tp532
F319.15986935445295
s(I22
I3
tp533
F325.4780087755335
s(I104
I3
tp534
F357.100681744089
s(I168
I1
tp535
F351.6823941696885
s(I271
I3
tp536
F317.02510239754656
s(I58
I3
tp537
F351.34942240588015
s(I144
I2
tp538
F319.9272551871828
s(I220
I1
tp539
F317.3235022920694
s(I307
I3
tp540
F321.94295677363635
s(I197
I1
tp541
F340.7724060158024
s(I261
I3
tp542
F319.93624859712617
s(I304
I1
tp543
F325.5884911269308
s(I233
I1
tp544
F316.74478480528114
s(I297
I3
tp545
F323.23389746184876
s(I52
I1
tp546
F201.3931411398184
s(I191
I3
tp547
F336.41691165563896
s(I278
I1
tp548
F370.5455948534701
s(I302
I2
tp549
F390.10453182478426
s(I65
I1
tp550
F274.1014185996646
s(I129
I3
tp551
F353.19320941167774
s(I227
I3
tp552
F319.29495782113247
s(I180
I2
tp553
F333.24830560917337
s(I267
I2
tp554
F339.48250628796325
s(I291
I1
tp555
F298.62243351629894
s(I23
I3
tp556
F321.9613731158918
s(I216
I2
tp557
F364.1965916764826
s(I256
I3
tp558
F345.79745430502487
s(I217
I3
tp559
F320.9372170224811
s(I59
I3
tp560
F318.1893408778073
s(I257
I2
tp561
F344.06393547654613
s(I12
I2
tp562
F322.0522404150355
s(I13
I3
tp563
F320.75800211621095
s(I198
I1
tp564
F314.49100243305617
s(I222
I2
tp565
F364.166008150677
s(I48
I2
tp566
F308.8044970134865
s(I262
I3
tp567
F367.5644527315038
s(I234
I1
tp568
F318.4994157858564
s(I187
I2
tp569
F322.4240175052356
s(I211
I1
tp570
F304.99655288875306
s(I298
I3
tp571
F420.8038116223737
s(I54
I2
tp572
F334.47107693211865
s(I141
I2
tp573
F345.70721562207683
s(I239
I2
tp574
F335.2556635682279
s(I7
I1
tp575
F107.26194331612348
s(I66
I1
tp576
F319.7291837934757
s(I90
I2
tp577
F357.53017868697054
s(I19
I2
tp578
F346.8281031655127
s(I43
I1
tp579
F261.6418367745114
s(I130
I3
tp580
F342.8113286530436
s(I228
I3
tp581
F307.99462083312085
s(I118
I1
tp582
F310.16361719727104
s(I292
I1
tp583
F371.8940940870769
s(I71
I2
tp584
F317.9407062060282
s(I95
I1
tp585
F358.87959837234393
s(I182
I3
tp586
F350.5212249910651
s(I269
I1
tp587
F360.73708463371935
s(I8
I3
tp588
F351.5050747996664
s(I9
I2
tp589
F322.3498812646438
s(I107
I2
tp590
F317.97978425257793
s(I218
I3
tp591
F327.79596466165884
s(I305
I1
tp592
F136.24570072463865
s(I60
I3
tp593
F338.1964796542054
s(I128
I2
tp594
F345.4554191517742
s(I14
I3
tp595
F315.52190180244213
s(I96
I3
tp596
F326.22603978759196
s(I217
I1
tp597
F321.55501317193637
s(I225
I2
tp598
F314.1303551073055
s(I50
I3
tp599
F310.83379009586
s(I212
I1
tp600
F314.18412449561265
s(I299
I3
tp601
F354.6219475967574
s(I102
I3
tp602
F315.73295213637255
s(I189
I1
tp603
F313.36431095441134
s(I248
I1
tp604
F311.9211109906943
s(I225
I1
tp605
F322.2329604855465
s(I289
I3
tp606
F321.5853538987012
s(I44
I1
tp607
F235.69030157619042
s(I131
I3
tp608
F315.891185047409
s(I21
I1
tp609
F82.89131845606447
s(I80
I1
tp610
F265.7476424702766
s(I183
I3
tp611
F325.3718915149932
s(I270
I1
tp612
F320.8124185617306
s(I294
I2
tp613
F327.4221825928469
s(I57
I1
tp614
F315.1383886644475
s(I117
I1
tp615
F302.21624927122184
s(I219
I3
tp616
F366.80459783549196
s(I306
I1
tp617
F202.52420287388128
s(I259
I2
tp618
F319.58532140223485
s(I283
I1
tp619
F190.03097541130234
s(I15
I3
tp620
F337.9328237574966
s(I208
I2
tp621
F329.75821194942546
s(I209
I3
tp622
F392.58290926425303
s(I51
I3
tp623
F340.52419966894564
s(I4
I2
tp624
F356.2513036125718
s(I300
I3
tp625
F340.4420594063239
s(I5
I3
tp626
F371.97569156820504
s(I103
I3
tp627
F317.8857824083989
s(I190
I1
tp628
F328.69186532795607
s(I214
I2
tp629
F326.53541270473323
s(I301
I2
tp630
F373.63115345976894
s(I40
I2
tp631
F379.08855814069165
s(I143
I2
tp632
F323.3770270138605
s(I167
I1
tp633
F325.94211303597393
s(I41
I3
tp634
F335.6105050586524
s(I226
I1
tp635
F334.46788799514997
s(I250
I2
tp636
F354.45177017070023
s(I92
I2
tp637
F334.73024922640815
s(I203
I1
tp638
F315.4540073319421
s(I290
I3
tp639
F316.97396920461784
s(I132
I3
tp640
F369.4000415632422
s(I93
I3
tp641
F311.4351205962866
s(I22
I1
tp642
F186.29760242848337
s(I46
I2
tp643
F359.9861006918955
s(I231
I2
tp644
F315.0259326364896
s(I255
I1
tp645
F373.2894655113474
s(I168
I3
tp646
F340.2842277879952
s(I58
I1
tp647
F274.9916049162302
s(I82
I2
tp648
F323.7703620476284
s(I11
I2
tp649
F329.02051792670454
s(I220
I3
tp650
F347.5452498070176
s(I284
I1
tp651
F128.92316156131133
s(I63
I2
tp652
F382.8997754433837
s(I261
I1
tp653
F315.81954757992946
s(I264
I2
tp654
F306.47280882896456
s(I1
I2
tp655
F346.9484400052494
s(I272
I1
tp656
F319.0323122726914
s(I210
I3
tp657
F357.9205839496866
s(I297
I1
tp658
F204.71052567661803
s(I52
I3
tp659
F338.4062753286895
s(I53
I2
tp660
F346.84798949829786
s(I6
I3
tp661
F323.99701813663216
s(I89
I2
tp662
F361.8903461974243
s(I42
I3
tp663
F336.00923781906715
s(I129
I1
tp664
F298.19851848257474
s(I204
I1
tp665
F321.76001365872935
s(I291
I3
tp666
F326.6134793128598
s(I94
I3
tp667
F314.07222089203833
s(I240
I1
tp668
F345.1139133211398
s(I280
I2
tp669
F350.2127812737407
s(I281
I3
tp670
F343.25348930702853
s(I36
I1
tp671
F289.45047556840956
s(I13
I1
tp672
F186.09006069941248
s(I72
I1
tp673
F257.10731184726075
s(I262
I1
tp674
F320.1650257389883
s(I286
I2
tp675
F335.8331685148329
s(I211
I3
tp676
F331.89185276236356
s(I298
I1
tp677
F233.54198271823137
s(I275
I1
tp678
F317.94360431657225
s.