(dp0
(I7
I3
tp1
F345.3043517389749
s(I200
I2
tp2
F374.9087637997536
s(I303
I2
tp3
F322.94348575211757
s(I201
I3
tp4
F336.661578170161
s(I43
I3
tp5
F332.8932805399827
s(I130
I1
tp6
F250.80490556750672
s(I154
I2
tp7
F317.988003263672
s(I252
I2
tp8
F318.90356978122156
s(I292
I3
tp9
F315.64657315194626
s(I253
I3
tp10
F368.7068654274152
s(I95
I3
tp11
F345.0095949254593
s(I182
I1
tp12
F334.253372065735
s(I206
I2
tp13
F326.14026358781706
s(I293
I2
tp14
F375.8463074181025
s(I218
I1
tp15
F317.52280237363317
s(I242
I2
tp16
F336.94650012390474
s(I84
I2
tp17
F335.02334166494325
s(I195
I1
tp18
F368.753821017901
s(I282
I3
tp19
F318.4610219004015
s(I14
I1
tp20
F70.12699399046606
s(I38
I2
tp21
F327.54351259678253
s(I120
I2
tp22
F320.45802197134543
s(I223
I2
tp23
F317.17384122542546
s(I247
I1
tp24
F332.0647767794514
s(I50
I1
tp25
F235.365801610459
s(I256
I1
tp26
F321.02418286825224
s(I3
I2
tp27
F345.53974137126806
s(I212
I3
tp28
F316.6746525321318
s(I102
I1
tp29
F276.1706691378522
s(I276
I1
tp30
F377.9803114089847
s(I55
I2
tp31
F323.3937800313266
s(I79
I1
tp32
F293.3941399559824
s(I248
I3
tp33
F381.84561137053447
s(I249
I2
tp34
F351.5804337509765
s(I91
I2
tp35
F334.61093848713676
s(I115
I1
tp36
F309.06253299122733
s(I202
I3
tp37
F341.92401553304353
s(I289
I1
tp38
F319.84671811654886
s(I44
I3
tp39
F346.788800158251
s(I45
I2
tp40
F364.398799333193
s(I254
I3
tp41
F373.1431154823262
s(I80
I3
tp42
F334.8154158736174
s(I144
I1
tp43
F396.75800442813295
s(I156
I1
tp44
F302.82097756702666
s(I196
I1
tp45
F324.28865297674474
s(I283
I3
tp46
F352.6615717021515
s(I237
I1
tp47
F311.0366534084738
s(I232
I1
tp48
F333.1040807558171
s(I209
I1
tp49
F319.58264912214105
s(I273
I3
tp50
F323.0919420636225
s(I5
I1
tp51
F41.95784824789447
s(I64
I1
tp52
F266.4488352419935
s(I167
I3
tp53
F330.1241003179463
s(I278
I2
tp54
F325.97110877461057
s(I41
I1
tp55
F325.70156492151125
s(I116
I1
tp56
F348.0548334343546
s(I203
I3
tp57
F344.92171517128156
s(I290
I1
tp58
F304.5967243590401
s(I156
I2
tp59
F344.88401790731336
s(I267
I1
tp60
F356.1394420518948
s(I255
I3
tp61
F317.0736536078364
s(I192
I2
tp62
F360.53774605046493
s(I295
I2
tp63
F338.7448046058684
s(I193
I3
tp64
F311.01776866730125
s(I244
I2
tp65
F372.82887379156807
s(I284
I3
tp66
F337.0184492430596
s(I245
I3
tp67
F346.4103830499963
s(I198
I2
tp68
F347.7348817343618
s(I285
I2
tp69
F342.6095250325979
s(I210
I1
tp70
F306.8037538362321
s(I234
I2
tp71
F320.17358871857715
s(I76
I2
tp72
F353.0261518302155
s(I187
I1
tp73
F350.22679322848535
s(I274
I3
tp74
F325.61216447298216
s(I77
I3
tp75
F348.17231105379403
s(I6
I1
tp76
F389.10299594325505
s(I215
I2
tp77
F318.029145293532
s(I239
I1
tp78
F355.2938562333754
s(I42
I1
tp79
F266.93830593365743
s(I66
I2
tp80
F333.9299621348394
s(I251
I2
tp81
F350.7160415569891
s(I19
I1
tp82
F179.415808095771
s(I204
I3
tp83
F357.159032189541
s(I94
I1
tp84
F208.4396207896118
s(I118
I2
tp85
F335.4740812314039
s(I268
I1
tp86
F316.5009649678698
s(I47
I2
tp87
F343.6828649563211
s(I71
I1
tp88
F339.3370694983887
s(I240
I3
tp89
F359.65139346578917
s(I304
I1
tp90
F324.4985825192886
s(I83
I2
tp91
F358.4525303340014
s(I107
I1
tp92
F279.9661091690496
s(I194
I3
tp93
F369.7889209588228
s(I281
I1
tp94
F332.64410411022334
s(I36
I3
tp95
F389.2751081780672
s(I69
I1
tp96
F240.7940522708878
s(I37
I2
tp97
F358.48131560329296
s(I246
I3
tp98
F351.21661491093397
s(I72
I3
tp99
F334.16919940417216
s(I221
I1
tp100
F338.9975119938173
s(I229
I2
tp101
F378.38732967257084
s(I188
I1
tp102
F315.58331994308
s(I275
I3
tp103
F352.21872857960864
s(I78
I3
tp104
F358.811685096056
s(I224
I1
tp105
F312.0281486202928
s(I201
I1
tp106
F321.2722238367326
s(I265
I3
tp107
F359.55639730327744
s(I20
I1
tp108
F251.1514955784216
s(I253
I1
tp109
F322.54451419248744
s(I56
I1
tp110
F342.00321350281865
s(I270
I2
tp111
F331.6217976416384
s(I105
I1
tp112
F298.41352023431205
s(I108
I1
tp113
F336.68121830074216
s(I195
I3
tp114
F320.1104993066953
s(I282
I1
tp115
F326.89749280558215
s(I306
I2
tp116
F505.0872234088308
s(I259
I1
tp117
F333.45269992579404
s(I247
I3
tp118
F360.3670766575422
s(I184
I2
tp119
F343.1966031921937
s(I287
I2
tp120
F343.9219767895565
s(I185
I3
tp121
F342.8315016843377
s(I236
I2
tp122
F319.9878638474685
s(I276
I3
tp123
F320.9567388561666
s(I237
I3
tp124
F350.81422795838927
s(I79
I3
tp125
F332.98808341577654
s(I190
I2
tp126
F351.7858135916694
s(I277
I2
tp127
F348.5678114570088
s(I16
I2
tp128
F352.6260682425029
s(I143
I1
tp129
F287.8442908833296
s(I17
I3
tp130
F343.5415660336813
s(I115
I3
tp131
F322.7202299195245
s(I202
I1
tp132
F328.0819685193693
s(I226
I2
tp133
F317.49233478890534
s(I68
I2
tp134
F325.2386602995456
s(I155
I2
tp135
F338.24295646082004
s(I266
I3
tp136
F346.7017991691384
s(I69
I3
tp137
F330.67231827693877
s(I254
I1
tp138
F325.3257372626583
s(I22
I2
tp139
F331.48525961965845
s(I104
I2
tp140
F356.90667053742317
s(I207
I2
tp141
F353.48133130643976
s(I231
I1
tp142
F318.51585256813723
s(I144
I3
tp143
F361.98487090019603
s(I105
I3
tp144
F342.77632711699175
s(I58
I2
tp145
F346.8132284829553
s(I243
I2
tp146
F317.30550051386683
s(I11
I1
tp147
F346.6625023991486
s(I196
I3
tp148
F358.82822232151597
s(I260
I1
tp149
F424.4704446322917
s(I39
I2
tp150
F335.7249529775804
s(I63
I1
tp151
F290.85719652060055
s(I232
I3
tp152
F317.58610213775705
s(I205
I1
tp153
F326.491698781175
s(I233
I2
tp154
F364.67903638528225
s(I213
I2
tp155
F377.20010171754086
s(I186
I3
tp156
F323.7387475730617
s(I273
I1
tp157
F333.0454271859768
s(I238
I3
tp158
F383.047300036869
s(I64
I3
tp159
F337.30283827611646
s(I65
I2
tp160
F378.08106148256866
s(I18
I3
tp161
F327.1634521293366
s(I116
I3
tp162
F330.1603634813632
s(I180
I1
tp163
F347.6192340708767
s(I267
I3
tp164
F344.5178084139956
s(I70
I3
tp165
F328.01759267128125
s(I216
I1
tp166
F322.5231385017692
s(I106
I3
tp167
F394.50405585948806
s(I193
I1
tp168
F314.27410083529185
s(I257
I3
tp169
F334.9929722990276
s(I12
I1
tp170
F196.49118752342838
s(I263
I3
tp171
F311.59806541232535
s(I245
I1
tp172
F335.2741095948351
s(I241
I1
tp173
F327.27021897493347
s(I48
I1
tp174
F334.6240036126925
s(I262
I2
tp175
F318.48289779594967
s(I187
I3
tp176
F323.9141453602304
s(I274
I1
tp177
F329.3142276265327
s(I298
I2
tp178
F343.254808565325
s(I77
I1
tp179
F402.3633063929445
s(I141
I3
tp180
F392.9809467900789
s(I239
I3
tp181
F330.74035812130097
s(I279
I2
tp182
F332.9858191866745
s(I303
I1
tp183
F169.00898477242777
s(I19
I3
tp184
F352.05149444697093
s(I130
I2
tp185
F354.4401872104783
s(I228
I2
tp186
F325.18103163711646
s(I268
I3
tp187
F333.906843994645
s(I229
I3
tp188
F324.77185492763385
s(I71
I3
tp189
F334.14252565405735
s(I182
I2
tp190
F333.47198283838696
s(I269
I2
tp191
F359.95783714184637
s(I8
I2
tp192
F347.61448327459334
s(I304
I3
tp193
F327.17747093774506
s(I9
I3
tp194
F362.39009205308827
s(I107
I3
tp195
F335.35579656486743
s(I194
I1
tp196
F324.59074815515345
s(I218
I2
tp197
F341.5968036989866
s(I305
I2
tp198
F331.04285685422605
s(I60
I2
tp199
F378.8690241351967
s(I258
I3
tp200
F366.3650303423459
s(I246
I1
tp201
F322.2542138419964
s(I14
I2
tp202
F360.0941167160869
s(I96
I2
tp203
F346.58399984703306
s(I199
I2
tp204
F353.92670690051966
s(I223
I1
tp205
F354.0856848058279
s(I50
I2
tp206
F336.2679085776329
s(I197
I2
tp207
F352.83515382175756
s(I235
I2
tp208
F338.05392705760096
s(I3
I1
tp209
F115.80479569158277
s(I188
I3
tp210
F374.8522104339579
s(I78
I1
tp211
F349.5862238149498
s(I102
I2
tp212
F361.6657605323816
s(I189
I2
tp213
F345.54775152431085
s(I55
I1
tp214
F270.81566313872383
s(I142
I3
tp215
F332.91578742064337
s(I224
I3
tp216
F330.17708516537266
s(I225
I2
tp217
F357.940965889863
s(I67
I2
tp218
F373.3877116999784
s(I91
I1
tp219
F342.8994635691754
s(I265
I1
tp220
F313.52087853139614
s(I20
I3
tp221
F365.52542426581147
s(I21
I2
tp222
F329.9619791848694
s(I119
I2
tp223
F379.71692226748337
s(I230
I3
tp224
F323.7915586862408
s(I237
I2
tp225
F319.62512954639556
s(I56
I3
tp226
F341.76081410081525
s(I57
I2
tp227
F334.7434125022132
s(I10
I3
tp228
F374.55417063163094
s(I108
I3
tp229
F342.15067958255895
s(I81
I2
tp230
F331.51417101330776
s(I259
I3
tp231
F335.8720055779525
s(I288
I2
tp232
F319.3622945127206
s(I208
I1
tp233
F324.9193068043299
s(I185
I1
tp234
F316.11978800937953
s(I4
I1
tp235
F156.57868464451985
s(I300
I2
tp236
F309.30757077402257
s(I301
I3
tp237
F313.29953189115366
s(I40
I1
tp238
F242.1886560754844
s(I143
I3
tp239
F327.6589426951326
s(I17
I1
tp240
F174.38041049641183
s(I92
I1
tp241
F258.4897616870006
s(I266
I1
tp242
F312.0395879566135
s(I290
I2
tp243
F342.4796574304406
s(I132
I2
tp244
F339.03102467234146
s(I231
I3
tp245
F348.93012553707246
s(I168
I2
tp246
F373.7800587260057
s(I271
I2
tp247
F340.2444135893171
s(I295
I1
tp248
F291.20487508020506
s(I11
I3
tp249
F338.26305995820064
s(I220
I2
tp250
F331.6196879589021
s(I307
I2
tp251
F300.03560241588633
s(I260
I3
tp252
F341.23600079510004
s(I221
I3
tp253
F374.56178240436503
s(I63
I3
tp254
F388.23157476567263
s(I261
I2
tp255
F329.86778026532437
s(I1
I3
tp256
F261.5165118832894
s(I186
I1
tp257
F315.2308740660953
s(I210
I2
tp258
F324.4905302091017
s(I297
I2
tp259
F307.8211433948084
s(I52
I2
tp260
F350.74019137090295
s(I53
I3
tp261
F330.05907079674597
s(I238
I1
tp262
F318.4071202289246
s(I6
I2
tp263
F315.78861248244164
s(I191
I2
tp264
F316.42404935200034
s(I215
I1
tp265
F372.5698342874174
s(I302
I3
tp266
F324.17511840605744
s(I128
I3
tp267
F346.8229528527507
s(I89
I3
tp268
F437.171201902252
s(I18
I1
tp269
F228.2563651426542
s(I42
I2
tp270
F321.4480191302897
s(I129
I2
tp271
F337.34421861779083
s(I227
I2
tp272
F341.58744009516664
s(I251
I1
tp273
F331.82252304678246
s(I180
I3
tp274
F339.8994474978317
s(I70
I1
tp275
F287.5344366196001
s(I94
I2
tp276
F343.6748312394379
s(I23
I2
tp277
F343.80826751308143
s(I47
I1
tp278
F270.1916472046447
s(I216
I3
tp279
F404.2735749787581
s(I106
I1
tp280
F311.47094071188815
s(I280
I1
tp281
F331.6039828489555
s(I59
I2
tp282
F348.9298406719887
s(I83
I1
tp283
F307.02910296391553
s(I257
I1
tp284
F316.48243424182
s(I12
I3
tp285
F332.0356463816543
s(I128
I1
tp286
F311.1518343502415
s(I13
I2
tp287
F346.5142735734793
s(I222
I3
tp288
F367.72237585513176
s(I48
I3
tp289
F336.02543553280043
s(I272
I2
tp290
F377.2363831476882
s(I217
I2
tp291
F351.29419875074865
s(I54
I3
tp292
F353.8924016481409
s(I141
I1
tp293
F246.56093825123583
s(I200
I1
tp294
F328.48099153700787
s(I303
I3
tp295
F282.2604627474368
s(I90
I3
tp296
F347.0372517680433
s(I252
I1
tp297
F328.91246679269165
s(I229
I1
tp298
F340.21523139084525
s(I293
I3
tp299
F335.95284881776485
s(I9
I1
tp300
F70.918381176617
s(I117
I2
tp301
F333.3794284579131
s(I84
I1
tp302
F343.6258408573864
s(I258
I1
tp303
F324.2986662083389
s(I282
I2
tp304
F337.8480358334382
s(I120
I1
tp305
F317.14341368453256
s(I223
I3
tp306
F356.46853709572633
s(I263
I2
tp307
F370.9006624919723
s(I287
I1
tp308
F321.16828990162384
s(I3
I3
tp309
F141.53799357202928
s(I212
I2
tp310
F358.0917943543587
s(I299
I2
tp311
F320.1683662799993
s(I213
I3
tp312
F328.7909040948066
s(I55
I3
tp313
F331.7149060374505
s(I142
I1
tp314
F325.8643606558683
s(I248
I2
tp315
F311.540993584204
s(I288
I3
tp316
F319.4426635402006
s(I249
I3
tp317
F358.56324679492263
s(I91
I3
tp318
F331.24267267805635
s(I202
I2
tp319
F340.2018950557892
s(I289
I2
tp320
F320.56179121413356
s(I44
I2
tp321
F387.490645338594
s(I131
I2
tp322
F324.7298273625025
s(I155
I1
tp323
F260.52587483661193
s(I45
I3
tp324
F346.76838106989356
s(I230
I1
tp325
F325.1667914135152
s(I254
I2
tp326
F362.0220086640376
s(I80
I2
tp327
F375.7593110575193
s(I183
I2
tp328
F321.66974582427065
s(I207
I1
tp329
F333.03058999987593
s(I294
I3
tp330
F342.20233812608456
s(I81
I3
tp331
F384.4500487751491
s(I10
I1
tp332
F158.38059178934634
s(I219
I2
tp333
F316.1138871162877
s(I243
I1
tp334
F316.0125041869275
s(I15
I2
tp335
F345.9797718212252
s(I39
I1
tp336
F244.30205187665183
s(I208
I3
tp337
F370.6401375327958
s(I256
I2
tp338
F357.9579621213907
s(I272
I1
tp339
F322.67872900023116
s(I201
I2
tp340
F351.7073931898441
s(I51
I2
tp341
F341.7163464445279
s(I4
I3
tp342
F204.92985663681446
s(I5
I2
tp343
F385.3014835651225
s(I103
I2
tp344
F321.2748266336696
s(I214
I3
tp345
F334.78956420926085
s(I301
I1
tp346
F332.29220287882646
s(I40
I3
tp347
F344.2585930950049
s(I41
I2
tp348
F362.4215340145762
s(I250
I3
tp349
F311.49982724913366
s(I92
I3
tp350
F360.603233209436
s(I93
I2
tp351
F339.88469164446394
s(I46
I3
tp352
F326.4591776207692
s(I192
I1
tp353
F373.19769577872535
s(I295
I3
tp354
F301.2612065023434
s(I82
I3
tp355
F342.82919583959927
s(I93
I1
tp356
F327.0472528360739
s(I244
I1
tp357
F352.26594730014637
s(I284
I2
tp358
F320.5883828116573
s(I285
I3
tp359
F315.0415092748337
s(I76
I1
tp360
F276.5861706358095
s(I274
I2
tp361
F390.39565193544735
s(I53
I1
tp362
F306.3281203042864
s(I215
I3
tp363
F345.8789540139011
s(I302
I1
tp364
F306.40530928649815
s(I89
I1
tp365
F329.44247269790867
s(I279
I1
tp366
F375.46285504697454
s(I251
I3
tp367
F314.0517777679545
s(I204
I2
tp368
F382.07868889611365
s(I291
I2
tp369
F349.62364794238283
s(I205
I3
tp370
F316.8165426848176
s(I47
I3
tp371
F369.1585120771133
s(I240
I2
tp372
F313.9536040235873
s(I280
I3
tp373
F379.66971869827796
s(I241
I3
tp374
F336.87126682288266
s(I83
I3
tp375
F342.45760411537714
s(I194
I2
tp376
F329.3256567246631
s(I281
I2
tp377
F334.21060325317575
s(I36
I2
tp378
F329.2756205104559
s(I37
I3
tp379
F334.9995972894342
s(I222
I1
tp380
F329.34011825652567
s(I246
I2
tp381
F336.110673747086
s(I72
I2
tp382
F332.6624069398271
s(I199
I1
tp383
F332.01957855036187
s(I286
I3
tp384
F323.2208517041375
s(I211
I2
tp385
F372.86282066009346
s(I235
I1
tp386
F313.5325047331066
s(I54
I1
tp387
F297.73137053667324
s(I78
I2
tp388
F345.25910387372704
s(I7
I2
tp389
F148.6194059116541
s(I200
I3
tp390
F319.63375064796935
s(I90
I1
tp391
F338.3920201232682
s(I264
I1
tp392
F413.94642462074376
s(I43
I2
tp393
F339.8776534793569
s(I67
I1
tp394
F300.6176872990693
s(I154
I3
tp395
F332.18491861333825
s(I252
I3
tp396
F356.93626333080005
s(I253
I2
tp397
F329.30686464878755
s(I95
I2
tp398
F380.7694694308321
s(I119
I1
tp399
F296.5185958947612
s(I206
I3
tp400
F334.47855629777564
s(I293
I1
tp401
F372.24232528122667
s(I242
I3
tp402
F350.56127329272874
s(I84
I3
tp403
F341.6070547672276
s(I38
I3
tp404
F354.28253969795475
s(I120
I3
tp405
F341.90449341565966
s(I292
I2
tp406
F325.2970430431784
s(I184
I1
tp407
F361.230664198361
s(I287
I3
tp408
F317.4510249150758
s(I236
I1
tp409
F399.7052443577056
s(I276
I2
tp410
F352.9730423670669
s(I277
I3
tp411
F323.9637527890566
s(I16
I1
tp412
F110.74085525511006
s(I249
I1
tp413
F326.3741389217143
s(I68
I1
tp414
F373.9703755771251
s(I155
I3
tp415
F341.91918749373474
s(I266
I2
tp416
F331.5178602782304
s(I45
I1
tp417
F348.99307977660624
s(I104
I1
tp418
F337.90233575615105
s(I207
I3
tp419
F336.08325024081483
s(I294
I1
tp420
F324.4220588719169
s(I144
I2
tp421
F355.15227390288806
s(I271
I1
tp422
F336.264282655224
s(I243
I3
tp423
F378.1966100880851
s(I196
I2
tp424
F323.05958160064233
s(I283
I2
tp425
F340.82643141001756
s(I307
I1
tp426
F375.09765215322363
s(I197
I3
tp427
F382.0297129424739
s(I39
I3
tp428
F383.1608246692207
s(I232
I2
tp429
F371.4057458005516
s(I272
I3
tp430
F321.70689149340535
s(I233
I3
tp431
F325.6332705764244
s(I186
I2
tp432
F349.1195217871829
s(I273
I2
tp433
F354.7119466004298
s(I214
I1
tp434
F335.2007019277666
s(I238
I2
tp435
F329.58527392421286
s(I64
I2
tp436
F340.33250605038586
s(I167
I2
tp437
F365.1549042953863
s(I191
I1
tp438
F352.29549182762025
s(I278
I3
tp439
F352.6488196775319
s(I65
I3
tp440
F327.1530314288107
s(I250
I1
tp441
F309.89204760379636
s(I18
I2
tp442
F361.2999136334289
s(I116
I2
tp443
F350.34463511118656
s(I203
I2
tp444
F320.3236174288092
s(I227
I1
tp445
F321.1812709527512
s(I156
I3
tp446
F330.3442859640786
s(I117
I3
tp447
F385.5438095924985
s(I46
I1
tp448
F346.3876545661105
s(I70
I2
tp449
F331.3787223801275
s(I255
I2
tp450
F339.89752087029825
s(I23
I1
tp451
F219.1311100197426
s(I192
I3
tp452
F371.2672896921562
s(I82
I1
tp453
F295.3273108219339
s(I106
I2
tp454
F336.49856541146505
s(I193
I2
tp455
F366.1332019420959
s(I59
I1
tp456
F348.8379623061025
s(I244
I3
tp457
F344.82023612561983
s(I69
I2
tp458
F360.0140886466463
s(I245
I2
tp459
F334.60775367909997
s(I198
I3
tp460
F343.0372635749626
s(I285
I1
tp461
F323.222200139367
s(I213
I1
tp462
F363.91553847763805
s(I284
I1
tp463
F354.26765924147514
s(I234
I3
tp464
F341.97318331168213
s(I76
I3
tp465
F333.5645412914215
s(I77
I2
tp466
F347.16941542857967
s(I279
I3
tp467
F318.94736765045656
s(I66
I3
tp468
F351.7362409872962
s(I228
I1
tp469
F331.2865141425027
s(I118
I3
tp470
F333.9837859158208
s(I268
I2
tp471
F360.9674491130079
s(I269
I3
tp472
F352.8032278338545
s(I8
I1
tp473
F362.00240759850135
s(I304
I2
tp474
F334.71431440414494
s(I105
I2
tp475
F330.64060255332237
s(I305
I3
tp476
F243.26891932184935
s(I60
I1
tp477
F330.25611208794675
s(I258
I2
tp478
F327.1116579077666
s(I37
I1
tp479
F291.63948900469086
s(I96
I1
tp480
F340.7619885127095
s(I199
I3
tp481
F326.01921396497386
s(I286
I1
tp482
F288.4230763951193
s(I263
I1
tp483
F319.7236294372883
s(I235
I3
tp484
F335.79064002263715
s(I188
I2
tp485
F315.24361127211387
s(I275
I2
tp486
F333.74591281837246
s(I299
I1
tp487
F282.6471223679842
s(I189
I3
tp488
F379.44133421324267
s(I142
I2
tp489
F368.85637511874893
s(I224
I2
tp490
F344.25298528753507
s(I264
I3
tp491
F319.62986190237075
s(I225
I3
tp492
F351.7692625972222
s(I67
I3
tp493
F338.48108372211414
s(I154
I1
tp494
F321.14416854066707
s(I265
I2
tp495
F305.59129273765257
s(I20
I2
tp496
F338.0397005316672
s(I131
I1
tp497
F285.86093900639037
s(I21
I3
tp498
F328.31215102024026
s(I119
I3
tp499
F325.32303791194147
s(I206
I1
tp500
F344.8509174433518
s(I230
I2
tp501
F326.46931726348174
s(I56
I2
tp502
F363.1531036043523
s(I183
I1
tp503
F319.8290842256866
s(I270
I3
tp504
F335.41429338474035
s(I57
I3
tp505
F346.18350103683525
s(I242
I1
tp506
F336.4707236468813
s(I10
I2
tp507
F101.77700766107237
s(I108
I2
tp508
F339.2893745912734
s(I195
I2
tp509
F325.60574576396004
s(I219
I1
tp510
F330.4030907184852
s(I306
I3
tp511
F178.06321614899485
s(I38
I1
tp512
F312.01643205235337
s(I247
I2
tp513
F331.9732775647921
s(I15
I1
tp514
F164.80704623069238
s(I184
I3
tp515
F326.0030051088829
s(I197
I1
tp516
F349.17869197132455
s(I185
I2
tp517
F334.8773914423618
s(I205
I2
tp518
F353.16969264015825
s(I51
I1
tp519
F332.17179072613663
s(I236
I3
tp520
F335.2277566429245
s(I300
I1
tp521
F224.46525936762654
s(I79
I2
tp522
F343.6507093351488
s(I103
I1
tp523
F285.4060198955147
s(I190
I3
tp524
F318.0219458421987
s(I277
I1
tp525
F368.64051508991713
s(I16
I3
tp526
F341.03603688960357
s(I17
I2
tp527
F339.6434756871294
s(I115
I2
tp528
F340.08281142026436
s(I226
I3
tp529
F350.59357015044935
s(I68
I3
tp530
F379.9844401417926
s(I132
I1
tp531
F342.9044471693453
s(I22
I3
tp532
F330.81603824457534
s(I104
I3
tp533
F332.89087359405835
s(I168
I1
tp534
F290.2727449631668
s(I271
I3
tp535
F341.14760461485184
s(I58
I3
tp536
F329.77908574204156
s(I81
I1
tp537
F290.8211608802751
s(I220
I1
tp538
F329.83083995030347
s(I307
I3
tp539
F322.60471163791675
s(I260
I2
tp540
F340.93374945821915
s(I261
I3
tp541
F362.3003313805468
s(I241
I2
tp542
F329.98457201257645
s(I233
I1
tp543
F321.1763515165346
s(I297
I3
tp544
F349.62554564840264
s(I52
I1
tp545
F349.903432749125
s(I191
I3
tp546
F366.6363994749428
s(I278
I1
tp547
F316.3069881749042
s(I302
I2
tp548
F199.0232508409575
s(I128
I2
tp549
F322.22466122047774
s(I129
I3
tp550
F327.01057190420556
s(I227
I3
tp551
F345.4665206012991
s(I180
I2
tp552
F342.50462753304447
s(I267
I2
tp553
F339.4319827989952
s(I291
I1
tp554
F292.7724252240706
s(I23
I3
tp555
F347.494323502351
s(I216
I2
tp556
F323.477584546225
s(I256
I3
tp557
F322.83539261915297
s(I217
I3
tp558
F321.48997506611715
s(I59
I3
tp559
F345.997776512315
s(I257
I2
tp560
F318.4166011256371
s(I12
I2
tp561
F343.9838120887347
s(I13
I3
tp562
F370.67406010959957
s(I198
I1
tp563
F350.51984560974205
s(I222
I2
tp564
F322.3674116165953
s(I48
I2
tp565
F341.61737534200404
s(I262
I3
tp566
F359.5586323441035
s(I234
I1
tp567
F346.51317915593546
s(I187
I2
tp568
F377.49095140724955
s(I211
I1
tp569
F325.42030337105854
s(I298
I3
tp570
F295.6614315063319
s(I54
I2
tp571
F341.2718098406774
s(I141
I2
tp572
F334.236502476073
s(I239
I2
tp573
F340.69862895484727
s(I7
I1
tp574
F64.78571917614208
s(I66
I1
tp575
F236.4558138412255
s(I90
I2
tp576
F340.6972832557773
s(I19
I2
tp577
F369.0580240456532
s(I43
I1
tp578
F312.9771966575835
s(I130
I3
tp579
F335.69692723083233
s(I228
I3
tp580
F355.1384052473579
s(I118
I1
tp581
F371.98183922843447
s(I292
I1
tp582
F367.0408118770541
s(I71
I2
tp583
F368.9712024575233
s(I95
I1
tp584
F252.03459181701908
s(I182
I3
tp585
F353.3630871281208
s(I269
I1
tp586
F357.64351689683934
s(I8
I3
tp587
F301.716506553073
s(I9
I2
tp588
F103.23627699584566
s(I107
I2
tp589
F345.5630171005099
s(I218
I3
tp590
F327.54114852257624
s(I305
I1
tp591
F322.5003008245917
s(I60
I3
tp592
F331.5803483106068
s(I65
I1
tp593
F326.8834024621936
s(I14
I3
tp594
F341.0228580914239
s(I96
I3
tp595
F332.44868172757833
s(I280
I2
tp596
F333.5927810062677
s(I288
I1
tp597
F299.85414470434006
s(I50
I3
tp598
F353.2420588280245
s(I212
I1
tp599
F319.2542747108506
s(I299
I3
tp600
F321.4794639934846
s(I102
I3
tp601
F334.5089477654698
s(I189
I1
tp602
F345.7555965716564
s(I248
I1
tp603
F326.2292546457
s(I225
I1
tp604
F319.7847509804373
s(I289
I3
tp605
F322.6492798519733
s(I44
I1
tp606
F283.6034804978581
s(I131
I3
tp607
F350.4909511429533
s(I21
I1
tp608
F205.4207902571471
s(I80
I1
tp609
F328.4055910506783
s(I183
I3
tp610
F374.9734583661264
s(I270
I1
tp611
F367.2702391439054
s(I294
I2
tp612
F320.5264406653454
s(I57
I1
tp613
F246.02616882734551
s(I117
I1
tp614
F301.1745327376145
s(I219
I3
tp615
F374.70557307782815
s(I306
I1
tp616
F225.99984238572443
s(I259
I2
tp617
F339.17445044426375
s(I283
I1
tp618
F368.59079504875035
s(I15
I3
tp619
F371.21040189150887
s(I208
I2
tp620
F321.3343277907804
s(I209
I3
tp621
F349.9782846132532
s(I51
I3
tp622
F378.0436335815428
s(I4
I2
tp623
F361.6886510300786
s(I300
I3
tp624
F318.3338981747132
s(I5
I3
tp625
F110.55693810212937
s(I103
I3
tp626
F340.8018312363349
s(I190
I1
tp627
F314.8470473500547
s(I214
I2
tp628
F335.41782352946143
s(I301
I2
tp629
F319.4054941132282
s(I40
I2
tp630
F337.8135436707292
s(I143
I2
tp631
F345.9139062658176
s(I167
I1
tp632
F217.48157514503296
s(I41
I3
tp633
F347.3459810648026
s(I226
I1
tp634
F321.15728026381333
s(I250
I2
tp635
F391.51084812792476
s(I92
I2
tp636
F333.2286438913135
s(I203
I1
tp637
F333.6090121606456
s(I290
I3
tp638
F357.89659779082785
s(I132
I3
tp639
F336.7789016642949
s(I93
I3
tp640
F350.7216892781588
s(I22
I1
tp641
F124.80350516152373
s(I46
I2
tp642
F343.4500718798165
s(I231
I2
tp643
F314.2662604949567
s(I255
I1
tp644
F312.5169939532898
s(I168
I3
tp645
F328.96774739370704
s(I58
I1
tp646
F355.067181704771
s(I82
I2
tp647
F331.3112005143741
s(I11
I2
tp648
F343.6431840713963
s(I220
I3
tp649
F348.91573799162904
s(I221
I2
tp650
F328.76964996023287
s(I63
I2
tp651
F345.82452092680717
s(I261
I1
tp652
F325.3132713353785
s(I264
I2
tp653
F331.79167842210506
s(I1
I2
tp654
F376.72697545792755
s(I209
I2
tp655
F309.9193672900968
s(I210
I3
tp656
F384.88576057944226
s(I297
I1
tp657
F293.09318041236656
s(I52
I3
tp658
F346.49776478448337
s(I53
I2
tp659
F358.8844605270116
s(I6
I3
tp660
F298.78774407929745
s(I89
I2
tp661
F335.6050419867324
s(I42
I3
tp662
F349.2525218640477
s(I129
I1
tp663
F312.4932595935572
s(I204
I1
tp664
F349.72140978187235
s(I291
I3
tp665
F324.68668574746647
s(I94
I3
tp666
F371.42950525521417
s(I240
I1
tp667
F325.8807500009529
s(I217
I1
tp668
F313.15907493044125
s(I281
I3
tp669
F372.05001714772993
s(I36
I1
tp670
F289.98722963440883
s(I13
I1
tp671
F63.896684121221654
s(I72
I1
tp672
F354.39214820490895
s(I262
I1
tp673
F376.9946385156058
s(I286
I2
tp674
F336.2245748341192
s(I211
I3
tp675
F352.76657982876947
s(I298
I1
tp676
F363.23593918409307
s(I275
I1
tp677
F325.07297839712527
s.