(dp0
(I7
I3
tp1
F311.30197132470954
s(I200
I2
tp2
F300.04639566502277
s(I303
I2
tp3
F269.1118306931901
s(I201
I3
tp4
F291.47848196356966
s(I43
I3
tp5
F291.0584423933392
s(I130
I1
tp6
F316.1737358024442
s(I154
I2
tp7
F290.681428617023
s(I252
I2
tp8
F307.1351559893083
s(I292
I3
tp9
F282.2994190929499
s(I253
I3
tp10
F300.47426359741587
s(I95
I3
tp11
F305.81843046840225
s(I182
I1
tp12
F222.08332548227656
s(I206
I2
tp13
F306.0614763006751
s(I293
I2
tp14
F291.62417268199005
s(I218
I1
tp15
F290.445059464272
s(I242
I2
tp16
F319.4422727748007
s(I84
I2
tp17
F281.6039247004808
s(I195
I1
tp18
F301.2489508285244
s(I282
I3
tp19
F274.52664878831047
s(I14
I1
tp20
F323.0233401633049
s(I38
I2
tp21
F256.3890073314608
s(I120
I2
tp22
F300.4018141321799
s(I223
I2
tp23
F332.75676399850676
s(I247
I1
tp24
F304.4458170497178
s(I50
I1
tp25
F330.7491734323541
s(I193
I2
tp26
F291.01683916227637
s(I3
I2
tp27
F53.372480047448725
s(I212
I3
tp28
F291.9103793772488
s(I102
I1
tp29
F271.41978285769295
s(I213
I2
tp30
F300.7245082814476
s(I55
I2
tp31
F292.3725692198144
s(I79
I1
tp32
F233.46214330342588
s(I248
I3
tp33
F293.7214390104581
s(I249
I2
tp34
F300.2084334154713
s(I91
I2
tp35
F326.11567659254473
s(I115
I1
tp36
F306.6733743660055
s(I202
I3
tp37
F298.9373320411883
s(I289
I1
tp38
F261.9952564251257
s(I44
I3
tp39
F305.29409225573073
s(I45
I2
tp40
F308.55827817353776
s(I254
I3
tp41
F297.973029262784
s(I80
I3
tp42
F281.6548135252912
s(I81
I2
tp43
F307.8252762413294
s(I93
I2
tp44
F291.69057573066647
s(I196
I1
tp45
F298.78926630280233
s(I283
I3
tp46
F321.96135140162346
s(I237
I1
tp47
F326.91031880104447
s(I232
I1
tp48
F301.82653340243166
s(I209
I1
tp49
F320.48686980583864
s(I273
I3
tp50
F296.7237406123015
s(I5
I1
tp51
I-1
s(I64
I1
tp52
F232.95529235550845
s(I167
I3
tp53
F274.19466754101296
s(I278
I2
tp54
F299.4685437745801
s(I41
I1
tp55
F200.21226605342784
s(I116
I1
tp56
F257.6168376778027
s(I203
I3
tp57
F305.34477177876545
s(I290
I1
tp58
F285.39513476493005
s(I156
I2
tp59
F314.9171703717195
s(I267
I1
tp60
F306.14080455807914
s(I255
I3
tp61
F299.9566228314671
s(I192
I2
tp62
F283.97660593067087
s(I295
I2
tp63
F276.68435649613014
s(I193
I3
tp64
F311.6144697253993
s(I244
I2
tp65
F308.4364054323799
s(I284
I3
tp66
F307.3948256891898
s(I245
I3
tp67
F296.897722808956
s(I198
I2
tp68
F296.46974081484444
s(I285
I2
tp69
F311.9887629319827
s(I210
I1
tp70
F315.62508931482165
s(I234
I2
tp71
F317.4851727611366
s(I76
I2
tp72
F259.0566073623753
s(I187
I1
tp73
F297.6945960537839
s(I274
I3
tp74
F302.1262677689653
s(I77
I3
tp75
F323.01149364428335
s(I6
I1
tp76
F310.1031870963031
s(I215
I2
tp77
F303.02858030508065
s(I239
I1
tp78
F301.17852261834526
s(I42
I1
tp79
F220.47878855597955
s(I66
I2
tp80
F249.46872012681132
s(I251
I2
tp81
F316.24773781429616
s(I19
I1
tp82
F317.2682939235626
s(I204
I3
tp83
F311.2558902038756
s(I94
I1
tp84
F205.1950524322564
s(I118
I2
tp85
F241.99704696648257
s(I268
I1
tp86
F302.87141179537207
s(I47
I2
tp87
F294.3862044277205
s(I71
I1
tp88
F250.54680885863883
s(I240
I3
tp89
F299.6848217011707
s(I304
I1
tp90
F259.45196964809645
s(I83
I2
tp91
F286.39689809383236
s(I107
I1
tp92
F242.03386135508063
s(I194
I3
tp93
F318.02690343281165
s(I281
I1
tp94
F294.7265964228205
s(I36
I3
tp95
F324.05114448412826
s(I132
I2
tp96
F320.73877099846095
s(I37
I2
tp97
F323.9659183395283
s(I246
I3
tp98
F288.8577195856965
s(I72
I3
tp99
F328.0649213089323
s(I221
I1
tp100
F309.6849277676703
s(I292
I1
tp101
F304.4112962159212
s(I188
I1
tp102
F297.66545029480517
s(I275
I3
tp103
F321.69612310430455
s(I78
I3
tp104
F311.6422997201159
s(I224
I1
tp105
F296.5838473726851
s(I201
I1
tp106
F299.766642215182
s(I265
I3
tp107
F311.4588293691497
s(I20
I1
tp108
F123.71028091652677
s(I253
I1
tp109
F300.65817440210253
s(I56
I1
tp110
F276.3658112384743
s(I270
I2
tp111
F331.81093052014324
s(I168
I2
tp112
F308.11266097692015
s(I108
I1
tp113
F300.2895793746778
s(I195
I3
tp114
F322.8749474976201
s(I282
I1
tp115
F276.6762833838644
s(I306
I2
tp116
F279.95138283232757
s(I259
I1
tp117
F302.15362513642646
s(I247
I3
tp118
F290.40526774030405
s(I184
I2
tp119
F289.1527687492946
s(I287
I2
tp120
F310.04683840283144
s(I185
I3
tp121
F290.8157409507774
s(I236
I2
tp122
F326.1070694308089
s(I276
I3
tp123
F302.05931710298205
s(I237
I3
tp124
F307.8215909144565
s(I79
I3
tp125
F293.578757152022
s(I190
I2
tp126
F299.8893765473537
s(I277
I2
tp127
F304.99097477178
s(I16
I2
tp128
F196.76685797677337
s(I143
I1
tp129
F260.63395212034595
s(I17
I3
tp130
F217.28912543492763
s(I115
I3
tp131
F310.29902755171236
s(I202
I1
tp132
F288.89506990266796
s(I226
I2
tp133
F291.9522390920046
s(I68
I2
tp134
F314.3335381440787
s(I155
I2
tp135
F294.5240955986729
s(I266
I3
tp136
F296.18986452769724
s(I69
I3
tp137
F305.1936109668928
s(I254
I1
tp138
F316.90133061039853
s(I22
I2
tp139
F192.06458393513205
s(I104
I2
tp140
F262.4189108459208
s(I207
I2
tp141
F302.5824116633651
s(I231
I1
tp142
F282.01400712958275
s(I144
I3
tp143
F303.0777971486891
s(I105
I3
tp144
F239.4505960944033
s(I58
I2
tp145
F288.7888932895896
s(I243
I2
tp146
F297.78735512342695
s(I11
I1
tp147
F75.9354063060898
s(I196
I3
tp148
F291.49041176719174
s(I197
I2
tp149
F308.90241101619233
s(I39
I2
tp150
F303.1189654057331
s(I63
I1
tp151
F247.7618403686683
s(I232
I3
tp152
F305.88215557736066
s(I205
I1
tp153
F308.47216901479726
s(I233
I2
tp154
F310.19877628928725
s(I276
I1
tp155
F295.74111207336716
s(I186
I3
tp156
F304.25943978635047
s(I273
I1
tp157
F318.118654095708
s(I238
I3
tp158
F310.0073190726316
s(I64
I3
tp159
F303.45239566546024
s(I128
I1
tp160
F323.05011545511724
s(I18
I3
tp161
F313.75513451582896
s(I116
I3
tp162
F295.34310294135173
s(I180
I1
tp163
F293.7498786438485
s(I267
I3
tp164
F313.85273889736584
s(I70
I3
tp165
F308.06487284100126
s(I216
I1
tp166
F335.05735440502156
s(I106
I3
tp167
F266.6158813122398
s(I256
I2
tp168
F313.7795602509355
s(I257
I3
tp169
F295.67271333405023
s(I12
I1
tp170
F328.7968108946606
s(I245
I1
tp171
F290.70129040244683
s(I304
I2
tp172
F309.73922721877966
s(I48
I1
tp173
F222.8430151985269
s(I262
I2
tp174
F342.77329474663554
s(I187
I3
tp175
F312.8651586684966
s(I274
I1
tp176
F304.27198423036106
s(I298
I2
tp177
F317.33195504011076
s(I77
I1
tp178
F271.3288688935249
s(I141
I3
tp179
F290.93447773509223
s(I239
I3
tp180
F306.3789543264173
s(I279
I2
tp181
F319.47173214450567
s(I303
I1
tp182
F367.11392819342507
s(I19
I3
tp183
F265.01608124206706
s(I130
I2
tp184
F278.45944047696895
s(I228
I2
tp185
F288.55883184198916
s(I268
I3
tp186
F300.06780713782496
s(I229
I3
tp187
F305.38980838641265
s(I71
I3
tp188
F288.37996158950006
s(I182
I2
tp189
F301.6038926693659
s(I269
I2
tp190
F303.48406557876075
s(I8
I2
tp191
F89.90434405236874
s(I304
I3
tp192
F289.18957382078145
s(I9
I3
tp193
F105.91310069490252
s(I107
I3
tp194
F301.18702611962544
s(I194
I1
tp195
F295.55975598518404
s(I218
I2
tp196
F292.9961532846457
s(I305
I2
tp197
F319.0116721828359
s(I60
I2
tp198
F295.952529605699
s(I258
I3
tp199
F303.6683688948708
s(I246
I1
tp200
F307.4004751025524
s(I14
I2
tp201
F245.2812339218364
s(I96
I2
tp202
F250.97190090924462
s(I199
I2
tp203
F296.6466171671627
s(I223
I1
tp204
F298.5707083865631
s(I50
I2
tp205
F303.94237050088003
s(I260
I1
tp206
F292.36539997079444
s(I235
I2
tp207
F304.2305274171438
s(I3
I1
tp208
F318.06617440830735
s(I188
I3
tp209
F325.0007574116995
s(I78
I1
tp210
F210.22324449076396
s(I102
I2
tp211
F282.28887367271227
s(I189
I2
tp212
F301.29434394709676
s(I55
I1
tp213
F244.28221289098806
s(I142
I3
tp214
F259.5778434124936
s(I224
I3
tp215
F316.975569010163
s(I288
I1
tp216
F332.30798286211825
s(I67
I2
tp217
F250.3228939204667
s(I91
I1
tp218
F187.2332935264041
s(I265
I1
tp219
F293.46077862770926
s(I20
I3
tp220
F304.71202295624926
s(I21
I2
tp221
F248.41419304431363
s(I119
I2
tp222
F321.9157882013426
s(I230
I3
tp223
F298.30803347090733
s(I237
I2
tp224
F308.96525611024254
s(I56
I3
tp225
F281.9213471628124
s(I57
I2
tp226
F322.7104015737413
s(I10
I3
tp227
F28.13084595231938
s(I108
I3
tp228
F298.79828363961593
s(I144
I1
tp229
F275.2961733013908
s(I259
I3
tp230
F295.4511321433788
s(I288
I2
tp231
F283.3198407526311
s(I208
I1
tp232
F294.98730598474583
s(I185
I1
tp233
F321.91125526296975
s(I4
I1
tp234
F35.206441535380655
s(I300
I2
tp235
F278.1320391614629
s(I301
I3
tp236
F290.56567016767735
s(I40
I1
tp237
F277.448441895819
s(I143
I3
tp238
F288.7378236143625
s(I17
I1
tp239
F319.2149161283801
s(I92
I1
tp240
F274.83163212028774
s(I266
I1
tp241
F327.09530382676866
s(I290
I2
tp242
F284.918376806855
s(I69
I1
tp243
F186.36586789475984
s(I231
I3
tp244
F291.76119622377735
s(I105
I1
tp245
F257.42297176959187
s(I271
I2
tp246
F303.08038784775533
s(I295
I1
tp247
F255.3081186342527
s(I11
I3
tp248
F242.2585141296815
s(I220
I2
tp249
F304.45340941169945
s(I307
I2
tp250
F295.0418113491814
s(I260
I3
tp251
F300.3780468963947
s(I221
I3
tp252
F292.94188239829424
s(I63
I3
tp253
F322.27788138533566
s(I261
I2
tp254
F308.85366611937695
s(I1
I3
tp255
F86.01059859503214
s(I186
I1
tp256
F293.3688088297397
s(I210
I2
tp257
F306.4327186283925
s(I297
I2
tp258
F301.13810315797946
s(I52
I2
tp259
F307.570976691895
s(I53
I3
tp260
F264.8028476903803
s(I238
I1
tp261
F345.1836749233349
s(I6
I2
tp262
F94.48636933218428
s(I191
I2
tp263
F330.1802193811961
s(I215
I1
tp264
F334.7532981698094
s(I302
I3
tp265
F315.84136585975085
s(I128
I3
tp266
F233.87407987085388
s(I89
I3
tp267
F329.09021487423814
s(I18
I1
tp268
F100.33334359198744
s(I42
I2
tp269
F322.45121379950353
s(I129
I2
tp270
F320.53966855027153
s(I227
I2
tp271
F304.81199905993924
s(I251
I1
tp272
F297.59685555469554
s(I180
I3
tp273
F300.20479781944005
s(I70
I1
tp274
F260.7670252789035
s(I94
I2
tp275
F323.17832513939766
s(I23
I2
tp276
F167.14875166802227
s(I47
I1
tp277
F329.95855595706365
s(I216
I3
tp278
F305.7723799618168
s(I106
I1
tp279
F261.09500983232874
s(I280
I1
tp280
F325.1403380013659
s(I59
I2
tp281
F331.16289356123895
s(I83
I1
tp282
F196.9388167328395
s(I257
I1
tp283
F299.7730880829919
s(I12
I3
tp284
F247.83306323784404
s(I65
I2
tp285
F287.6773475066037
s(I13
I2
tp286
F218.65985265235284
s(I222
I3
tp287
F303.7429598159752
s(I48
I3
tp288
F320.752899183893
s(I272
I2
tp289
F309.80658268085864
s(I217
I2
tp290
F308.7504148435497
s(I54
I3
tp291
F267.17559612130594
s(I141
I1
tp292
F243.18702644960044
s(I200
I1
tp293
F313.44640091918734
s(I303
I3
tp294
F225.13268713870266
s(I90
I3
tp295
F336.0145874356256
s(I252
I1
tp296
F304.93135226420253
s(I229
I1
tp297
F297.855461350537
s(I293
I3
tp298
F261.28534884510606
s(I9
I1
tp299
F26.15305980420454
s(I117
I2
tp300
F278.81147221244686
s(I84
I1
tp301
F325.80541916085775
s(I258
I1
tp302
F317.2541890705019
s(I282
I2
tp303
F276.84427094238794
s(I120
I1
tp304
F276.06303442081247
s(I223
I3
tp305
F296.60498367401266
s(I263
I2
tp306
F300.4013150139719
s(I287
I1
tp307
F300.13571749744796
s(I3
I3
tp308
F110.34204310634867
s(I212
I2
tp309
F297.78469673080656
s(I299
I2
tp310
F289.70334939399334
s(I213
I3
tp311
F298.7391001099636
s(I55
I3
tp312
F326.66341081332945
s(I142
I1
tp313
F232.66747038425848
s(I248
I2
tp314
F313.244012196954
s(I288
I3
tp315
F262.34540109029473
s(I249
I3
tp316
F311.8966124013843
s(I91
I3
tp317
F287.3912630439
s(I202
I2
tp318
F315.27252909744493
s(I289
I2
tp319
F284.87114024260325
s(I44
I2
tp320
F311.90902178783216
s(I131
I2
tp321
F319.45672139505234
s(I155
I1
tp322
F241.03200650231318
s(I45
I3
tp323
F251.332132393308
s(I230
I1
tp324
F305.5749136265945
s(I254
I2
tp325
F298.73773885199984
s(I80
I2
tp326
F320.7959118173704
s(I183
I2
tp327
F288.89709629904564
s(I207
I1
tp328
F301.7497308037786
s(I294
I3
tp329
F295.766590768298
s(I81
I3
tp330
F289.96084890843133
s(I10
I1
tp331
I-1
s(I219
I2
tp332
F321.0557301603875
s(I243
I1
tp333
F302.0620096772842
s(I15
I2
tp334
F195.42720749645054
s(I39
I1
tp335
F263.47931103605566
s(I208
I3
tp336
F291.0941138189599
s(I193
I1
tp337
F292.0383301564983
s(I209
I2
tp338
F295.10047633169074
s(I264
I1
tp339
F294.6541104507426
s(I51
I2
tp340
F260.74191700814475
s(I4
I3
tp341
F27.71009695202835
s(I5
I2
tp342
F303.3837278738164
s(I103
I2
tp343
F271.01181664871444
s(I214
I3
tp344
F300.2622165344848
s(I301
I1
tp345
F263.47967021288
s(I40
I3
tp346
F305.9007797203088
s(I41
I2
tp347
F287.61524084059926
s(I250
I3
tp348
F314.4167572049029
s(I92
I3
tp349
F300.78191021865416
s(I156
I1
tp350
F279.78106740614703
s(I46
I3
tp351
F314.9824245242809
s(I192
I1
tp352
F315.9135661834251
s(I295
I3
tp353
F313.05080553285745
s(I82
I3
tp354
F319.4885094186947
s(I93
I1
tp355
F237.93415882885856
s(I244
I1
tp356
F312.1181993049146
s(I284
I2
tp357
F286.0162934806542
s(I285
I3
tp358
F313.0911177820284
s(I1
I1
tp359
F56.2703157939213
s(I76
I1
tp360
F237.1780073825447
s(I274
I2
tp361
F320.6825356025548
s(I53
I1
tp362
F304.8446630408398
s(I215
I3
tp363
F299.8598242245671
s(I302
I1
tp364
F434.11477658805967
s(I89
I1
tp365
F186.9399718350314
s(I279
I1
tp366
F297.2347781003072
s(I251
I3
tp367
F304.62045125106556
s(I204
I2
tp368
F304.774682229679
s(I291
I2
tp369
F284.6946618968108
s(I205
I3
tp370
F307.06558902015274
s(I47
I3
tp371
F299.67226247285765
s(I240
I2
tp372
F303.1618451209887
s(I280
I3
tp373
F296.56649455121277
s(I241
I3
tp374
F305.99728901718936
s(I83
I3
tp375
F318.0357055774058
s(I194
I2
tp376
F295.8112042135989
s(I281
I2
tp377
F328.29529764872905
s(I36
I2
tp378
F278.91866431329015
s(I37
I3
tp379
F296.3367471072747
s(I222
I1
tp380
F308.95914732435773
s(I246
I2
tp381
F296.5814774970369
s(I72
I2
tp382
F295.31643189629796
s(I199
I1
tp383
F317.55353158516414
s(I286
I3
tp384
F289.4495983777833
s(I211
I2
tp385
F301.1753189460434
s(I235
I1
tp386
F319.27311232680086
s(I54
I1
tp387
F269.78701989734793
s(I78
I2
tp388
F272.64502595580103
s(I7
I2
tp389
F35.743275700363306
s(I200
I3
tp390
F302.61717419952623
s(I90
I1
tp391
F271.477012015543
s(I201
I2
tp392
F313.5872695318038
s(I43
I2
tp393
F320.8348115340962
s(I67
I1
tp394
F237.6532402189525
s(I154
I3
tp395
F301.3917472228661
s(I252
I3
tp396
F304.1533251918578
s(I253
I2
tp397
F300.6204328593548
s(I95
I2
tp398
F277.49247589649383
s(I119
I1
tp399
F253.8276279749605
s(I206
I3
tp400
F304.8796613413958
s(I293
I1
tp401
F239.80895682848893
s(I242
I3
tp402
F309.0160005257895
s(I84
I3
tp403
F296.4900249978446
s(I38
I3
tp404
F298.5351489281673
s(I120
I3
tp405
F296.33736519582806
s(I292
I2
tp406
F280.047877639765
s(I184
I1
tp407
F293.61671324147136
s(I287
I3
tp408
F268.9598621642585
s(I236
I1
tp409
F297.15963657357076
s(I213
I1
tp410
F294.55752185070287
s(I277
I3
tp411
F293.6800112197907
s(I16
I1
tp412
F156.63526358491444
s(I249
I1
tp413
F304.816952814452
s(I68
I1
tp414
F248.98495015971622
s(I155
I3
tp415
F317.87018048188366
s(I266
I2
tp416
F309.9263841479931
s(I45
I1
tp417
F292.4113928724937
s(I104
I1
tp418
F226.94521129671165
s(I207
I3
tp419
F300.6090978145662
s(I294
I1
tp420
F266.6719493196423
s(I144
I2
tp421
F303.74362150170026
s(I271
I1
tp422
F314.8168991817297
s(I243
I3
tp423
F295.8764046135603
s(I196
I2
tp424
F318.1373650454775
s(I283
I2
tp425
F292.91178956035697
s(I307
I1
tp426
F283.5873955702141
s(I197
I3
tp427
F295.0435594416067
s(I39
I3
tp428
F298.5588702135692
s(I232
I2
tp429
F325.2640864773215
s(I272
I3
tp430
F295.6146349166266
s(I233
I3
tp431
F300.3495438934805
s(I186
I2
tp432
F296.5464629482677
s(I273
I2
tp433
F297.28459718503575
s(I214
I1
tp434
F323.8984602102047
s(I238
I2
tp435
F297.2522796716157
s(I64
I2
tp436
F285.28636134952575
s(I167
I2
tp437
F315.3677099885695
s(I191
I1
tp438
F296.2715974895238
s(I278
I3
tp439
F308.0384756355818
s(I65
I3
tp440
F305.63267483687076
s(I250
I1
tp441
F302.2338434686841
s(I18
I2
tp442
F181.42659025044782
s(I116
I2
tp443
F314.8758597653515
s(I203
I2
tp444
F347.387743220552
s(I227
I1
tp445
F307.2814885591179
s(I156
I3
tp446
F287.16483344359506
s(I117
I3
tp447
F300.7296487188934
s(I46
I1
tp448
F264.8830345609119
s(I70
I2
tp449
F264.4182188114005
s(I255
I2
tp450
F290.7946250215898
s(I23
I1
tp451
F161.20717618624158
s(I192
I3
tp452
F298.36611732738527
s(I82
I1
tp453
F246.0892675439463
s(I106
I2
tp454
F335.25665553997095
s(I256
I1
tp455
F331.97648406329
s(I59
I1
tp456
F226.54642964623872
s(I244
I3
tp457
F307.2583368336352
s(I132
I1
tp458
F201.46474888919656
s(I245
I2
tp459
F303.34537659116404
s(I198
I3
tp460
F298.8121126544346
s(I285
I1
tp461
F349.59005171142235
s(I276
I2
tp462
F323.5252847220174
s(I284
I1
tp463
F282.993415911431
s(I234
I3
tp464
F307.38908935911724
s(I76
I3
tp465
F301.7865929232379
s(I77
I2
tp466
F258.26563585840654
s(I279
I3
tp467
F297.9237363276834
s(I66
I3
tp468
F302.9287541910017
s(I225
I2
tp469
F295.25715267311307
s(I228
I1
tp470
F314.4460797001532
s(I118
I3
tp471
F314.5668913882853
s(I268
I2
tp472
F327.06637631849327
s(I269
I3
tp473
F302.23273849837005
s(I8
I1
tp474
F305.0521405110559
s(I241
I1
tp475
F295.39019793484164
s(I168
I1
tp476
F249.75854721953104
s(I305
I3
tp477
F278.72913003054003
s(I60
I1
tp478
F272.76647534933966
s(I258
I2
tp479
F300.9274701409751
s(I37
I1
tp480
F298.65491548166875
s(I96
I1
tp481
F282.55159336438425
s(I199
I3
tp482
F302.5556996697909
s(I286
I1
tp483
F303.2913176635832
s(I263
I1
tp484
F294.7958698358117
s(I235
I3
tp485
F316.0591228925023
s(I188
I2
tp486
F300.1389348849245
s(I275
I2
tp487
F293.42893579686137
s(I299
I1
tp488
F401.11488894558227
s(I189
I3
tp489
F303.6668949522557
s(I142
I2
tp490
F323.209166431689
s(I224
I2
tp491
F296.81055099999526
s(I264
I3
tp492
F338.2916527874672
s(I225
I3
tp493
F287.57387368095635
s(I67
I3
tp494
F321.4765486087345
s(I154
I1
tp495
F267.194417479089
s(I265
I2
tp496
F317.1602581385487
s(I20
I2
tp497
F192.0919963982813
s(I131
I1
tp498
F246.10190966194614
s(I21
I3
tp499
F210.74057164578667
s(I119
I3
tp500
F309.47917266434365
s(I206
I1
tp501
F315.1122363886456
s(I230
I2
tp502
F328.02963648747897
s(I56
I2
tp503
F308.99832742714295
s(I183
I1
tp504
F290.44531392715163
s(I270
I3
tp505
F299.9437205955955
s(I57
I3
tp506
F274.9678824222443
s(I242
I1
tp507
F302.83693645854885
s(I10
I2
tp508
F312.0991417907016
s(I108
I2
tp509
F278.67745450515366
s(I195
I2
tp510
F306.41855218148766
s(I219
I1
tp511
F300.33558727426106
s(I306
I3
tp512
F281.3759164902732
s(I38
I1
tp513
F325.753232444133
s(I247
I2
tp514
F289.0095144571629
s(I15
I1
tp515
F123.64955668359713
s(I184
I3
tp516
F315.23436820046635
s(I197
I1
tp517
F298.08009336966063
s(I185
I2
tp518
F294.1050319881213
s(I205
I2
tp519
F306.8385643083794
s(I51
I1
tp520
F300.3999269973554
s(I236
I3
tp521
F297.43141355164414
s(I300
I1
tp522
F251.5416142907069
s(I79
I2
tp523
F326.3146372607523
s(I103
I1
tp524
F289.6515106838234
s(I190
I3
tp525
F323.211277883953
s(I277
I1
tp526
F291.64662340113307
s(I16
I3
tp527
F306.7142339907499
s(I17
I2
tp528
F164.49107667900319
s(I115
I2
tp529
F276.3073270556335
s(I226
I3
tp530
F314.8343006451217
s(I68
I3
tp531
F286.6742650358826
s(I69
I2
tp532
F327.866025719248
s(I22
I3
tp533
F322.9151320495595
s(I104
I3
tp534
F302.04882553686735
s(I105
I2
tp535
F324.6461173194828
s(I271
I3
tp536
F302.2012698644504
s(I58
I3
tp537
F298.1862582623916
s(I81
I1
tp538
F283.05878638760623
s(I220
I1
tp539
F306.5270685775071
s(I307
I3
tp540
F279.826849674813
s(I260
I2
tp541
F326.10490477412253
s(I261
I3
tp542
F296.999221888778
s(I241
I2
tp543
F293.8644351621212
s(I233
I1
tp544
F299.98209601404835
s(I297
I3
tp545
F308.1713212991379
s(I52
I1
tp546
F303.0117400184575
s(I191
I3
tp547
F298.6736967224372
s(I278
I1
tp548
F316.4905152633206
s(I302
I2
tp549
F315.56976045348637
s(I65
I1
tp550
F246.1871386673134
s(I129
I3
tp551
F284.56774342998324
s(I227
I3
tp552
F328.89848509742546
s(I180
I2
tp553
F294.57988468986395
s(I267
I2
tp554
F300.60653099496835
s(I291
I1
tp555
F264.8965430816084
s(I23
I3
tp556
F337.04701582077575
s(I216
I2
tp557
F307.1947786974423
s(I256
I3
tp558
F299.4652502245692
s(I217
I3
tp559
F284.4349135005622
s(I59
I3
tp560
F284.7373227675107
s(I257
I2
tp561
F299.0040554715408
s(I12
I2
tp562
F211.710516955919
s(I13
I3
tp563
F302.3106664148463
s(I198
I1
tp564
F319.0499298030356
s(I222
I2
tp565
F305.5646841107596
s(I48
I2
tp566
F300.4965822270764
s(I262
I3
tp567
F304.7333143304562
s(I234
I1
tp568
F306.11949170899635
s(I187
I2
tp569
F319.8776393680306
s(I211
I1
tp570
F297.19572572480746
s(I298
I3
tp571
F310.9644599026921
s(I54
I2
tp572
F334.4644094501415
s(I141
I2
tp573
F328.01449386349833
s(I239
I2
tp574
F298.17373171051554
s(I7
I1
tp575
I-1
s(I66
I1
tp576
F265.28518420308075
s(I90
I2
tp577
F266.09864569714824
s(I19
I2
tp578
F237.29480043264343
s(I43
I1
tp579
F298.610858770837
s(I130
I3
tp580
F268.90209622111337
s(I228
I3
tp581
F288.4345937218543
s(I118
I1
tp582
F256.99847140342814
s(I229
I2
tp583
F299.62235317293346
s(I71
I2
tp584
F307.9118530008967
s(I95
I1
tp585
F316.53505753922633
s(I182
I3
tp586
F297.5588523148089
s(I269
I1
tp587
F324.8265494595935
s(I8
I3
tp588
F191.88896198261193
s(I9
I2
tp589
F320.75200318306486
s(I107
I2
tp590
F321.868824895959
s(I218
I3
tp591
F293.18766082954926
s(I305
I1
tp592
F192.34343306147372
s(I60
I3
tp593
F322.9911187161226
s(I128
I2
tp594
F279.4311125193907
s(I14
I3
tp595
F167.08304937520123
s(I96
I3
tp596
F327.33286877830494
s(I217
I1
tp597
F309.4869428854058
s(I263
I3
tp598
F310.82291792062773
s(I50
I3
tp599
F300.7256255142571
s(I212
I1
tp600
F297.81571213714034
s(I299
I3
tp601
F269.17012041511134
s(I102
I3
tp602
F302.8063535671676
s(I189
I1
tp603
F302.9733010368685
s(I248
I1
tp604
F298.40020314332446
s(I225
I1
tp605
F333.86401437297513
s(I289
I3
tp606
F309.3203023953668
s(I44
I1
tp607
F207.4078179584616
s(I131
I3
tp608
F293.2089283772697
s(I21
I1
tp609
F312.0846914933214
s(I80
I1
tp610
F190.17104203848046
s(I183
I3
tp611
F319.8838306768075
s(I270
I1
tp612
F308.4719447639292
s(I294
I2
tp613
F286.61509334553807
s(I57
I1
tp614
F290.25783252284896
s(I117
I1
tp615
F244.9221583581072
s(I219
I3
tp616
F299.0764734155756
s(I306
I1
tp617
F364.1249167430359
s(I259
I2
tp618
F306.2426497186933
s(I283
I1
tp619
F288.88263183307885
s(I15
I3
tp620
F316.6192578546819
s(I208
I2
tp621
F307.11904651014174
s(I209
I3
tp622
F291.2069980874121
s(I51
I3
tp623
F305.403120396082
s(I4
I2
tp624
F321.2884669612314
s(I300
I3
tp625
F307.39981250496766
s(I5
I3
tp626
F32.0382324733319
s(I103
I3
tp627
F310.1779720708966
s(I190
I1
tp628
F299.0487978335078
s(I214
I2
tp629
F295.8326940721415
s(I301
I2
tp630
F307.67483699126024
s(I40
I2
tp631
F288.0343512472098
s(I143
I2
tp632
F320.84797469231853
s(I167
I1
tp633
F207.28585142344065
s(I41
I3
tp634
F310.85020604689765
s(I226
I1
tp635
F305.63384621839145
s(I250
I2
tp636
F299.47960889601075
s(I92
I2
tp637
F273.14688963124564
s(I203
I1
tp638
F294.59580925479696
s(I290
I3
tp639
F286.92995415422956
s(I132
I3
tp640
F268.1037401837771
s(I93
I3
tp641
F315.5898453224088
s(I22
I1
tp642
F36.838200815823484
s(I46
I2
tp643
F278.34654621240804
s(I231
I2
tp644
F315.88452839658385
s(I255
I1
tp645
F345.7729161602008
s(I168
I3
tp646
F327.4198899679719
s(I58
I1
tp647
F254.7330936757167
s(I82
I2
tp648
F275.44312776032814
s(I11
I2
tp649
F314.7575093145176
s(I220
I3
tp650
F289.6613716291157
s(I221
I2
tp651
F322.0457828924932
s(I63
I2
tp652
F255.6980440149171
s(I261
I1
tp653
F294.1846155123734
s(I264
I2
tp654
F307.62144061206226
s(I1
I2
tp655
F316.0280519223226
s(I272
I1
tp656
F305.6120167539586
s(I210
I3
tp657
F314.9703395911233
s(I297
I1
tp658
F299.5375676759663
s(I52
I3
tp659
F317.7791292242869
s(I53
I2
tp660
F297.7190003920673
s(I6
I3
tp661
F27.297378034215157
s(I89
I2
tp662
F266.045445154655
s(I42
I3
tp663
F277.19942726733643
s(I129
I1
tp664
F264.9378489372781
s(I204
I1
tp665
F340.87767224060184
s(I291
I3
tp666
F290.9908928373802
s(I94
I3
tp667
F284.8454695426791
s(I240
I1
tp668
F302.09593619552527
s(I280
I2
tp669
F311.2108351731741
s(I281
I3
tp670
F291.9039063177954
s(I36
I1
tp671
F268.8767019935147
s(I13
I1
tp672
F210.32260132536558
s(I72
I1
tp673
F246.5967896043057
s(I262
I1
tp674
F304.8616020863491
s(I286
I2
tp675
F293.2990497088204
s(I211
I3
tp676
F320.7916333066378
s(I298
I1
tp677
F264.6949129879265
s(I275
I1
tp678
F294.1783350136356
s.