(dp0
(I7
I3
tp1
F274.14628895781436
s(I200
I2
tp2
F345.9747595435284
s(I303
I2
tp3
F361.8811768060776
s(I201
I3
tp4
F348.0616614270025
s(I43
I3
tp5
F365.3143417898453
s(I130
I1
tp6
F323.62298599427385
s(I154
I2
tp7
F342.74659359710705
s(I252
I2
tp8
F344.01893464738146
s(I292
I3
tp9
F334.5948201957843
s(I253
I3
tp10
F336.6050156987432
s(I95
I3
tp11
F357.23977788424634
s(I182
I1
tp12
F354.3693265174792
s(I206
I2
tp13
F347.7635157650633
s(I293
I2
tp14
F319.11514535448947
s(I218
I1
tp15
F375.88440896549974
s(I242
I2
tp16
F330.8194071847581
s(I84
I2
tp17
F346.58622273985657
s(I195
I1
tp18
F337.0713982379621
s(I282
I3
tp19
F329.25885160159135
s(I14
I1
tp20
F168.2357566143102
s(I38
I2
tp21
F388.0519348065824
s(I120
I2
tp22
F349.60055155433736
s(I223
I2
tp23
F367.3119996572328
s(I247
I1
tp24
F368.1524588989389
s(I50
I1
tp25
F358.1820467283373
s(I256
I1
tp26
F333.4272992459104
s(I3
I2
tp27
F304.76775182222207
s(I212
I3
tp28
F350.8412550787297
s(I102
I1
tp29
F301.3145702998344
s(I213
I2
tp30
F333.82347686338005
s(I55
I2
tp31
F334.5418518689417
s(I79
I1
tp32
F328.628759583571
s(I248
I3
tp33
F333.88261804830455
s(I249
I2
tp34
F336.54575332112574
s(I91
I2
tp35
F354.6370734349333
s(I115
I1
tp36
F316.0136150549992
s(I202
I3
tp37
F353.4223636629303
s(I289
I1
tp38
F338.43134427153046
s(I44
I3
tp39
F351.55843115554103
s(I45
I2
tp40
F339.7076529018185
s(I254
I3
tp41
F340.31848170345086
s(I80
I3
tp42
F381.3015226867228
s(I81
I2
tp43
F364.4113450740403
s(I93
I2
tp44
F376.4521400377072
s(I196
I1
tp45
F340.72612628651046
s(I283
I3
tp46
F354.321440302648
s(I237
I1
tp47
F377.6099679292564
s(I232
I1
tp48
F362.82608681542564
s(I209
I1
tp49
F357.4279678157612
s(I273
I3
tp50
F351.87157518031415
s(I5
I1
tp51
F76.02528729765343
s(I64
I1
tp52
F343.5925248674226
s(I167
I3
tp53
F377.46749166918215
s(I278
I2
tp54
F336.43475888427434
s(I41
I1
tp55
F326.94987191359655
s(I116
I1
tp56
F302.1558882128348
s(I203
I3
tp57
F366.17555607558586
s(I290
I1
tp58
F352.96481171104193
s(I156
I2
tp59
F359.3511064844906
s(I267
I1
tp60
F359.17090384319636
s(I255
I3
tp61
F380.9160393068686
s(I192
I2
tp62
F351.46654358403293
s(I295
I2
tp63
F417.36166234546243
s(I193
I3
tp64
F331.68680731391237
s(I244
I2
tp65
F342.79870510514434
s(I284
I3
tp66
F330.9430329668637
s(I245
I3
tp67
F341.1421912644679
s(I198
I2
tp68
F357.95989599499705
s(I285
I2
tp69
F334.89306486075685
s(I210
I1
tp70
F366.40857593283965
s(I234
I2
tp71
F369.23567584373154
s(I76
I2
tp72
F342.1783116102689
s(I187
I1
tp73
F354.306251473138
s(I274
I3
tp74
F346.2463574300699
s(I77
I3
tp75
F361.6479212136412
s(I6
I1
tp76
F119.56441629674723
s(I215
I2
tp77
F355.9741432536809
s(I239
I1
tp78
F328.743997797578
s(I42
I1
tp79
F347.70516468313366
s(I66
I2
tp80
F352.86511739909145
s(I251
I2
tp81
F373.6943106656631
s(I19
I1
tp82
F224.75047015140868
s(I204
I3
tp83
F344.9707113060253
s(I94
I1
tp84
F328.29798348572314
s(I118
I2
tp85
F373.30421473898787
s(I205
I2
tp86
F352.0734027031572
s(I47
I2
tp87
F380.39392557610563
s(I71
I1
tp88
F377.911995235426
s(I240
I3
tp89
F357.6834758297055
s(I241
I2
tp90
F348.609065752371
s(I83
I2
tp91
F362.618950358721
s(I107
I1
tp92
F314.4418896273501
s(I194
I3
tp93
F329.2520174587077
s(I281
I1
tp94
F353.9280966761678
s(I36
I3
tp95
F376.8280736327687
s(I69
I1
tp96
F336.52554798530775
s(I37
I2
tp97
F409.08285839128564
s(I246
I3
tp98
F353.06514158312854
s(I72
I3
tp99
F335.1181350690725
s(I221
I1
tp100
F344.24379620725773
s(I229
I2
tp101
F379.8391048604272
s(I188
I1
tp102
F361.2269544324466
s(I275
I3
tp103
F351.1284088721438
s(I78
I3
tp104
F346.99774410950226
s(I224
I1
tp105
F330.3576105098394
s(I264
I2
tp106
F345.09128857611483
s(I265
I3
tp107
F342.9116805346838
s(I20
I1
tp108
F64.19317597233801
s(I253
I1
tp109
F381.1796046029967
s(I56
I1
tp110
F312.8849814194708
s(I270
I2
tp111
F346.40246975167787
s(I105
I1
tp112
F292.20258275672046
s(I108
I1
tp113
F389.02309360355036
s(I195
I3
tp114
F359.6204855388871
s(I282
I1
tp115
F269.9165906374024
s(I306
I2
tp116
F319.90141072226334
s(I259
I1
tp117
F357.61350073878623
s(I247
I3
tp118
F350.35971412826893
s(I184
I2
tp119
F348.56173875162165
s(I287
I2
tp120
F356.0635923855714
s(I185
I3
tp121
F407.6409940002607
s(I236
I2
tp122
F358.12287302717516
s(I276
I3
tp123
F363.7170946520123
s(I237
I3
tp124
F326.7858371732311
s(I79
I3
tp125
F341.7981636375096
s(I190
I2
tp126
F362.9532124303905
s(I277
I2
tp127
F366.2236998260595
s(I16
I2
tp128
F371.9611321325904
s(I143
I1
tp129
F314.34920791355887
s(I17
I3
tp130
F360.7020668622965
s(I115
I3
tp131
F380.8811558903115
s(I202
I1
tp132
F343.8582236580589
s(I226
I2
tp133
F351.83250193013293
s(I68
I2
tp134
F373.5867637225754
s(I155
I2
tp135
F338.4474836490287
s(I266
I3
tp136
F343.42264299706625
s(I69
I3
tp137
F354.06247017884544
s(I254
I1
tp138
F330.0836375133166
s(I22
I2
tp139
F342.603232339179
s(I104
I2
tp140
F352.97208369533695
s(I207
I2
tp141
F335.9034068186346
s(I231
I1
tp142
F350.33767148121586
s(I144
I3
tp143
F344.32300340904965
s(I105
I3
tp144
F332.06856468930476
s(I58
I2
tp145
F355.686222722536
s(I243
I2
tp146
F365.5009007295411
s(I11
I1
tp147
F140.1658276348678
s(I196
I3
tp148
F336.5570407066495
s(I197
I2
tp149
F337.3665670626321
s(I39
I2
tp150
F407.15046888829437
s(I63
I1
tp151
F347.7893507494161
s(I232
I3
tp152
F353.9394208355678
s(I268
I2
tp153
F348.0380304311631
s(I233
I2
tp154
F348.881386502557
s(I276
I1
tp155
F327.6896714295089
s(I186
I3
tp156
F393.4382536015586
s(I273
I1
tp157
F339.49750593749627
s(I238
I3
tp158
F347.54723132149405
s(I64
I3
tp159
F343.0869754261286
s(I65
I2
tp160
F342.38888159583513
s(I18
I3
tp161
F401.71891966425477
s(I116
I3
tp162
F336.25359713252357
s(I180
I1
tp163
F353.3593639034074
s(I267
I3
tp164
F344.08206811034887
s(I70
I3
tp165
F346.2673587984325
s(I216
I1
tp166
F330.2694368999308
s(I106
I3
tp167
F343.25476326909654
s(I193
I1
tp168
F346.4291856507754
s(I257
I3
tp169
F350.44880704377675
s(I12
I1
tp170
F180.37725872336588
s(I263
I3
tp171
F363.0786608572389
s(I245
I1
tp172
F350.6811590029924
s(I304
I2
tp173
F313.5727514652965
s(I48
I1
tp174
F354.6325277939579
s(I262
I2
tp175
F374.99946121570815
s(I187
I3
tp176
F399.9095173748707
s(I274
I1
tp177
F357.8928110554815
s(I298
I2
tp178
F325.0753581846408
s(I77
I1
tp179
F278.11291121927735
s(I141
I3
tp180
F345.14390885384944
s(I239
I3
tp181
F335.1717145754978
s(I279
I2
tp182
F356.48920492003487
s(I303
I1
tp183
F258.0955192628475
s(I19
I3
tp184
F353.20840978784696
s(I130
I2
tp185
F344.2636851005622
s(I228
I2
tp186
F353.03533057147786
s(I268
I3
tp187
F361.84651280926425
s(I229
I3
tp188
F343.32867673724456
s(I71
I3
tp189
F353.0177261853632
s(I182
I2
tp190
F352.32397966598796
s(I269
I2
tp191
F344.74491744065165
s(I8
I2
tp192
F98.73305773242589
s(I304
I3
tp193
F317.2249638191347
s(I9
I3
tp194
F152.2108722380325
s(I107
I3
tp195
F346.225182200572
s(I194
I1
tp196
F372.4871037595975
s(I218
I2
tp197
F366.65022857141196
s(I305
I2
tp198
F392.64800474897766
s(I60
I2
tp199
F348.3818600355908
s(I258
I3
tp200
F342.266222717457
s(I246
I1
tp201
F362.12206528840824
s(I14
I2
tp202
F352.80304224316313
s(I96
I2
tp203
F368.9699260908755
s(I199
I2
tp204
F328.1481623010613
s(I223
I1
tp205
F364.49432549365065
s(I50
I2
tp206
F353.636150254804
s(I260
I1
tp207
F373.9668381898504
s(I235
I2
tp208
F325.1356755664051
s(I3
I1
tp209
F438.1521446461517
s(I188
I3
tp210
F347.82866217796527
s(I78
I1
tp211
F280.9203294014814
s(I102
I2
tp212
F375.71279920223276
s(I189
I2
tp213
F364.57506346725
s(I55
I1
tp214
F210.47050925475304
s(I142
I3
tp215
F385.0403283583304
s(I224
I3
tp216
F338.9431779238416
s(I288
I1
tp217
F333.1594167243306
s(I67
I2
tp218
F353.03169984740174
s(I91
I1
tp219
F338.05154847199606
s(I265
I1
tp220
F332.47191095155955
s(I20
I3
tp221
F348.1746639540887
s(I21
I2
tp222
F428.8853563288849
s(I119
I2
tp223
F395.62373116987993
s(I230
I3
tp224
F338.7231808175712
s(I56
I3
tp225
F351.89583322916724
s(I57
I2
tp226
F365.82004750613635
s(I10
I3
tp227
F365.4294506033112
s(I108
I3
tp228
F361.39773494638354
s(I144
I1
tp229
F279.46507991606313
s(I259
I3
tp230
F370.42802838075676
s(I225
I1
tp231
F349.3781354208896
s(I208
I1
tp232
F350.12961370366014
s(I185
I1
tp233
F388.87645572559177
s(I4
I1
tp234
F113.35461972558244
s(I300
I2
tp235
F392.31581449191685
s(I301
I3
tp236
F340.7538606229433
s(I40
I1
tp237
F319.6195423949385
s(I143
I3
tp238
F335.47524411712425
s(I17
I1
tp239
F228.9446804509161
s(I92
I1
tp240
F302.2293768486743
s(I266
I1
tp241
F344.92573875566956
s(I290
I2
tp242
F327.6050891952243
s(I132
I2
tp243
F372.8137873379862
s(I231
I3
tp244
F333.02612263446315
s(I168
I2
tp245
F345.13984817364656
s(I271
I2
tp246
F352.37869346504374
s(I295
I1
tp247
F427.70234531302725
s(I11
I3
tp248
F354.55763116866905
s(I220
I2
tp249
F343.8346824225137
s(I307
I2
tp250
F324.14770291065224
s(I260
I3
tp251
F369.13731568899686
s(I221
I3
tp252
F358.9139785616648
s(I63
I3
tp253
F345.3647589862
s(I261
I2
tp254
F333.7841448890971
s(I1
I3
tp255
F366.7647179906528
s(I186
I1
tp256
F366.994911531376
s(I210
I2
tp257
F368.04784274716826
s(I297
I2
tp258
F336.83251825594294
s(I52
I2
tp259
F344.4597515704977
s(I53
I3
tp260
F379.2518087276167
s(I238
I1
tp261
F379.4580726455668
s(I6
I2
tp262
F188.86073063554645
s(I191
I2
tp263
F359.8701264265583
s(I215
I1
tp264
F341.1860568942405
s(I302
I3
tp265
F363.3171915578731
s(I128
I3
tp266
F365.89910676441633
s(I89
I3
tp267
F346.984018610097
s(I18
I1
tp268
F166.56196606150536
s(I42
I2
tp269
F357.43282903981384
s(I129
I2
tp270
F332.8276563920846
s(I227
I2
tp271
F349.6438933409025
s(I251
I1
tp272
F352.57566144238183
s(I180
I3
tp273
F351.35545841171273
s(I70
I1
tp274
F270.03881895643275
s(I94
I2
tp275
F344.54815647249757
s(I23
I2
tp276
F338.76615906526575
s(I47
I1
tp277
F307.5519164072962
s(I216
I3
tp278
F341.66294687995173
s(I106
I1
tp279
F348.7489238974638
s(I217
I2
tp280
F347.4332881816683
s(I59
I2
tp281
F379.9241816672261
s(I83
I1
tp282
F219.6098958886764
s(I257
I1
tp283
F397.1698192094392
s(I12
I3
tp284
F348.92219895871403
s(I128
I1
tp285
F315.26231594605645
s(I13
I2
tp286
F339.68436686135965
s(I222
I3
tp287
F360.5014854060128
s(I48
I3
tp288
F350.6587653476331
s(I272
I2
tp289
F351.8654020173877
s(I280
I1
tp290
F336.5569033511823
s(I54
I3
tp291
F350.984866665133
s(I141
I1
tp292
F329.7584094298284
s(I200
I1
tp293
F355.3364675071047
s(I303
I3
tp294
F302.882750636161
s(I90
I3
tp295
F349.57717500792637
s(I252
I1
tp296
F345.5434644628141
s(I229
I1
tp297
F348.36336330335
s(I293
I3
tp298
F341.6479986902303
s(I9
I1
tp299
F106.92526634565324
s(I117
I2
tp300
F349.4467159609844
s(I84
I1
tp301
F336.8559329732339
s(I258
I1
tp302
F384.83756791789506
s(I282
I2
tp303
F332.7180763937794
s(I120
I1
tp304
F361.28913999276995
s(I223
I3
tp305
F388.6293265971384
s(I263
I2
tp306
F348.1567343653915
s(I287
I1
tp307
F396.57533903002536
s(I3
I3
tp308
F294.08032204108457
s(I212
I2
tp309
F342.4155578181662
s(I299
I2
tp310
F440.71864956787516
s(I213
I3
tp311
F357.8454160884413
s(I55
I3
tp312
F348.9752734793743
s(I142
I1
tp313
F335.4356376020769
s(I248
I2
tp314
F367.9121420479887
s(I288
I3
tp315
F328.4331502642179
s(I249
I3
tp316
F344.02155779878944
s(I91
I3
tp317
F343.1279183186827
s(I202
I2
tp318
F340.3329917138087
s(I289
I2
tp319
F332.6078051507657
s(I44
I2
tp320
F349.77729096635755
s(I131
I2
tp321
F363.6203505034095
s(I155
I1
tp322
F270.6941238350033
s(I45
I3
tp323
F391.52027250156806
s(I230
I1
tp324
F340.57167341865124
s(I254
I2
tp325
F354.9767428313222
s(I80
I2
tp326
F337.10976833341823
s(I183
I2
tp327
F354.9819823273149
s(I207
I1
tp328
F342.21465497735056
s(I294
I3
tp329
F329.52897041748605
s(I81
I3
tp330
F350.365644103219
s(I10
I1
tp331
F52.268658185799715
s(I219
I2
tp332
F359.2382881525079
s(I243
I1
tp333
F331.65948879371
s(I15
I2
tp334
F347.0599842415574
s(I39
I1
tp335
F359.8986160116809
s(I208
I3
tp336
F350.91790271960406
s(I256
I2
tp337
F334.3239301613514
s(I272
I1
tp338
F328.28027257061933
s(I201
I2
tp339
F342.6575947209217
s(I51
I2
tp340
F357.95516125538916
s(I4
I3
tp341
F381.2506600665837
s(I5
I2
tp342
F375.53685705304616
s(I103
I2
tp343
F346.8530416280467
s(I214
I3
tp344
F350.525246857934
s(I301
I1
tp345
F394.00974984739446
s(I40
I3
tp346
F353.39113461202334
s(I41
I2
tp347
F352.2467804664782
s(I250
I3
tp348
F368.43197828277914
s(I92
I3
tp349
F348.02377363332226
s(I156
I1
tp350
F353.6674337030113
s(I46
I3
tp351
F381.27374547262366
s(I192
I1
tp352
F346.9785089254732
s(I295
I3
tp353
F308.08038874259574
s(I82
I3
tp354
F354.2265608349321
s(I93
I1
tp355
F342.7451943589674
s(I244
I1
tp356
F352.6914609813553
s(I284
I2
tp357
F348.0149683693416
s(I285
I3
tp358
F325.13570237548555
s(I1
I1
tp359
F29.784863887321247
s(I76
I1
tp360
F311.2716891100839
s(I274
I2
tp361
F342.7899375056967
s(I53
I1
tp362
F335.03115596147944
s(I215
I3
tp363
F340.07727960780386
s(I302
I1
tp364
F226.63881896824583
s(I89
I1
tp365
F282.8830199263796
s(I279
I1
tp366
F365.14557905977966
s(I251
I3
tp367
F341.6675241047528
s(I204
I2
tp368
F349.7577742002262
s(I291
I2
tp369
F315.2458931328015
s(I205
I3
tp370
F379.89913276395896
s(I47
I3
tp371
F343.6836518472687
s(I240
I2
tp372
F338.39856361286763
s(I280
I3
tp373
F373.7039860241458
s(I241
I3
tp374
F335.3201911477638
s(I83
I3
tp375
F345.97251743351643
s(I194
I2
tp376
F334.00784304984427
s(I281
I2
tp377
F333.789050880336
s(I36
I2
tp378
F366.312547404971
s(I37
I3
tp379
F345.57323119568923
s(I222
I1
tp380
F350.93384794564855
s(I246
I2
tp381
F384.8519585433534
s(I72
I2
tp382
F331.5773953968212
s(I199
I1
tp383
F423.6155191025043
s(I286
I3
tp384
F318.8944069784103
s(I211
I2
tp385
F349.67392488090843
s(I235
I1
tp386
F345.62027634935606
s(I54
I1
tp387
F410.63236334763104
s(I78
I2
tp388
F343.1230255214946
s(I7
I2
tp389
F385.79858056915526
s(I200
I3
tp390
F353.00853100938656
s(I90
I1
tp391
F285.6243183673878
s(I264
I1
tp392
F339.2007069433794
s(I43
I2
tp393
F342.8582559860108
s(I67
I1
tp394
F295.7479842258196
s(I154
I3
tp395
F362.2681493940295
s(I252
I3
tp396
F366.2686476383749
s(I253
I2
tp397
F339.48148505449683
s(I95
I2
tp398
F355.9935683473955
s(I119
I1
tp399
F356.1250451911791
s(I206
I3
tp400
F356.87656153467344
s(I293
I1
tp401
F88.94518320360079
s(I242
I3
tp402
F329.03483703256416
s(I84
I3
tp403
F371.4130925339282
s(I38
I3
tp404
F348.376231922996
s(I120
I3
tp405
F339.68288859398166
s(I292
I2
tp406
F333.6560837811716
s(I184
I1
tp407
F355.3899418483438
s(I287
I3
tp408
F363.71694313690796
s(I236
I1
tp409
F340.8364022845174
s(I213
I1
tp410
F377.38680388893135
s(I237
I2
tp411
F349.4471524993516
s(I16
I1
tp412
F135.7312618276191
s(I249
I1
tp413
F345.3556860205142
s(I68
I1
tp414
F348.9391587648772
s(I155
I3
tp415
F404.7414786935249
s(I266
I2
tp416
F386.7005904275952
s(I45
I1
tp417
F280.64826410379396
s(I104
I1
tp418
F324.9467820155196
s(I207
I3
tp419
F340.57946490565945
s(I294
I1
tp420
F366.5029289713035
s(I81
I1
tp421
F292.4627065331044
s(I271
I1
tp422
F360.44119220220887
s(I243
I3
tp423
F342.2076458572083
s(I196
I2
tp424
F342.05594563028393
s(I283
I2
tp425
F343.0307904285223
s(I307
I1
tp426
F429.92893872651564
s(I197
I3
tp427
F356.8815902849231
s(I39
I3
tp428
F373.42592831922104
s(I232
I2
tp429
F336.7130437599623
s(I272
I3
tp430
F375.8775706389102
s(I233
I3
tp431
F344.6482781086622
s(I186
I2
tp432
F357.24819774982194
s(I273
I2
tp433
F465.09963510761395
s(I214
I1
tp434
F345.31473695933624
s(I238
I2
tp435
F340.0869059290637
s(I64
I2
tp436
F338.2644832993545
s(I167
I2
tp437
F355.25997396099115
s(I191
I1
tp438
F336.9934471636944
s(I278
I3
tp439
F366.5087707432878
s(I65
I3
tp440
F387.5643180021541
s(I250
I1
tp441
F362.46400980703527
s(I18
I2
tp442
F351.3782980162796
s(I116
I2
tp443
F356.2162179953248
s(I203
I2
tp444
F339.96903843534056
s(I227
I1
tp445
F342.4756843234037
s(I156
I3
tp446
F393.6107128433398
s(I117
I3
tp447
F354.41806027007607
s(I46
I1
tp448
F304.3921981355104
s(I70
I2
tp449
F349.90684603778334
s(I255
I2
tp450
F349.32049111087764
s(I23
I1
tp451
F59.40363909125147
s(I192
I3
tp452
F348.53057088254343
s(I82
I1
tp453
F342.20629725700564
s(I106
I2
tp454
F360.75413234367636
s(I193
I2
tp455
F372.82904335933284
s(I59
I1
tp456
F273.4937163364114
s(I244
I3
tp457
F341.8662130531141
s(I69
I2
tp458
F372.4357297380064
s(I245
I2
tp459
F408.8065158173956
s(I198
I3
tp460
F336.82439140077486
s(I285
I1
tp461
F292.77318784644655
s(I276
I2
tp462
F342.0793989810334
s(I221
I2
tp463
F346.58359204444247
s(I234
I3
tp464
F347.5424399213729
s(I76
I3
tp465
F356.26997760777857
s(I77
I2
tp466
F354.4112156859183
s(I279
I3
tp467
F383.4734632639915
s(I66
I3
tp468
F352.5705024378595
s(I277
I3
tp469
F334.82336744151974
s(I228
I1
tp470
F348.6446486414926
s(I118
I3
tp471
F347.6796757545929
s(I205
I1
tp472
F335.61041860751186
s(I269
I3
tp473
F376.1331562668269
s(I8
I1
tp474
F30.924463355147495
s(I241
I1
tp475
F360.2155350841006
s(I105
I2
tp476
F331.9337405525478
s(I305
I3
tp477
F426.3221752739424
s(I60
I1
tp478
F290.67626529021516
s(I258
I2
tp479
F349.6789135322878
s(I37
I1
tp480
F347.28784440192345
s(I96
I1
tp481
F254.76116339168777
s(I199
I3
tp482
F338.70874074668745
s(I286
I1
tp483
F321.88037617845174
s(I263
I1
tp484
F385.42103059604165
s(I235
I3
tp485
F379.6758600438452
s(I188
I2
tp486
F333.4010659193791
s(I275
I2
tp487
F335.99191540598366
s(I299
I1
tp488
F-16.31341856684412
s(I189
I3
tp489
F338.2498571405224
s(I142
I2
tp490
F346.5232740207233
s(I224
I2
tp491
F385.22677133456267
s(I264
I3
tp492
F379.40828032984115
s(I225
I3
tp493
F379.86362254863707
s(I67
I3
tp494
F372.09513048990993
s(I154
I1
tp495
F332.28181648882463
s(I265
I2
tp496
F339.4293335401151
s(I20
I2
tp497
F396.70910295332817
s(I131
I1
tp498
F259.47361657976614
s(I21
I3
tp499
F355.6629137004004
s(I119
I3
tp500
F346.41324966275755
s(I206
I1
tp501
F332.6221622750227
s(I230
I2
tp502
F372.40025883361454
s(I56
I2
tp503
F394.7848577120613
s(I183
I1
tp504
F340.85309244664825
s(I270
I3
tp505
F338.42352554846366
s(I57
I3
tp506
F328.8460006005838
s(I242
I1
tp507
F334.1520548838481
s(I10
I2
tp508
F138.55943784030106
s(I108
I2
tp509
F340.4300206099326
s(I195
I2
tp510
F335.8974240917505
s(I219
I1
tp511
F346.08201548576
s(I306
I3
tp512
F326.86668141439833
s(I38
I1
tp513
F342.84642994040485
s(I247
I2
tp514
F333.49307148676826
s(I15
I1
tp515
F279.4981375478281
s(I184
I3
tp516
F354.2401818508812
s(I197
I1
tp517
F351.5044060372443
s(I185
I2
tp518
F358.1108546404481
s(I268
I1
tp519
F332.68054572173577
s(I51
I1
tp520
F318.03173211534937
s(I236
I3
tp521
F389.1226187644701
s(I300
I1
tp522
F246.09939588017295
s(I79
I2
tp523
F392.6980476006852
s(I103
I1
tp524
F205.02692259919186
s(I190
I3
tp525
F363.56495704616657
s(I277
I1
tp526
F327.6337830721348
s(I16
I3
tp527
F340.1635567357339
s(I17
I2
tp528
F351.9667342442982
s(I115
I2
tp529
F351.66067320428147
s(I226
I3
tp530
F348.9516769621501
s(I68
I3
tp531
F345.45756499990455
s(I132
I1
tp532
F334.37174430124776
s(I22
I3
tp533
F365.54403522611733
s(I104
I3
tp534
F348.75545433925225
s(I168
I1
tp535
F275.603285904793
s(I271
I3
tp536
F344.9398085592708
s(I58
I3
tp537
F364.63262622489805
s(I144
I2
tp538
F385.6010362205854
s(I220
I1
tp539
F393.6140937062016
s(I307
I3
tp540
F363.8432423917593
s(I260
I2
tp541
F386.6747059623729
s(I261
I3
tp542
F357.11176406683677
s(I304
I1
tp543
F391.41356433223757
s(I233
I1
tp544
F336.64165002961016
s(I297
I3
tp545
F341.0847971129832
s(I52
I1
tp546
F320.76379861234227
s(I191
I3
tp547
F342.4158496969551
s(I278
I1
tp548
F345.1898909725746
s(I302
I2
tp549
F325.2937949812186
s(I128
I2
tp550
F347.4739846174001
s(I129
I3
tp551
F366.1249391702793
s(I227
I3
tp552
F355.04282779280993
s(I180
I2
tp553
F349.267449765433
s(I267
I2
tp554
F346.7739941481494
s(I291
I1
tp555
F297.24340061095484
s(I23
I3
tp556
F350.59188401031554
s(I216
I2
tp557
F342.7111234746613
s(I256
I3
tp558
F353.7274905383968
s(I217
I3
tp559
F386.76576130180166
s(I59
I3
tp560
F426.0042190392482
s(I257
I2
tp561
F367.8722778210529
s(I12
I2
tp562
F401.5336392013961
s(I13
I3
tp563
F362.4705694903399
s(I198
I1
tp564
F337.7850893029459
s(I222
I2
tp565
F341.26524694873746
s(I48
I2
tp566
F350.9686313065465
s(I262
I3
tp567
F342.09136078520896
s(I234
I1
tp568
F349.69825048407483
s(I187
I2
tp569
F335.4661529958742
s(I211
I1
tp570
F357.8259935453091
s(I298
I3
tp571
F328.13156741601756
s(I54
I2
tp572
F351.1721044911524
s(I141
I2
tp573
F344.78333748342067
s(I239
I2
tp574
F356.4306080930827
s(I7
I1
tp575
F139.25612619352393
s(I66
I1
tp576
F273.3575538579188
s(I90
I2
tp577
F358.3403063485962
s(I19
I2
tp578
F368.50651399012145
s(I43
I1
tp579
F319.8390902786723
s(I130
I3
tp580
F349.2799847531627
s(I228
I3
tp581
F378.01971487040294
s(I118
I1
tp582
F303.4414114274036
s(I292
I1
tp583
F342.9823350014417
s(I71
I2
tp584
F366.5889447658616
s(I95
I1
tp585
F363.91105312014946
s(I182
I3
tp586
F375.32636960828984
s(I269
I1
tp587
F345.03084404168396
s(I8
I3
tp588
F364.4178716641089
s(I9
I2
tp589
F422.8446041763091
s(I107
I2
tp590
F369.15787201052046
s(I218
I3
tp591
F341.45691417043065
s(I305
I1
tp592
F461.05312744298334
s(I60
I3
tp593
F370.09877231695634
s(I65
I1
tp594
F287.157729085174
s(I14
I3
tp595
F351.23285286939074
s(I96
I3
tp596
F360.3415791697052
s(I280
I2
tp597
F340.06645824927637
s(I225
I2
tp598
F327.2239238884435
s(I50
I3
tp599
F389.1859356495242
s(I212
I1
tp600
F342.62093263076326
s(I299
I3
tp601
F359.71976637114483
s(I102
I3
tp602
F335.7579533074288
s(I189
I1
tp603
F339.22732944398257
s(I248
I1
tp604
F345.30872249347533
s(I288
I2
tp605
F366.92242543032626
s(I289
I3
tp606
F352.99538657271046
s(I44
I1
tp607
F359.99783467599764
s(I131
I3
tp608
F367.26272903110726
s(I21
I1
tp609
F104.33147031138436
s(I80
I1
tp610
F242.67772874926305
s(I183
I3
tp611
F396.9093746076304
s(I270
I1
tp612
F366.2662783011361
s(I294
I2
tp613
F393.42963955360307
s(I57
I1
tp614
F281.03532638153087
s(I117
I1
tp615
F257.1069815379439
s(I219
I3
tp616
F344.41147825556106
s(I306
I1
tp617
F399.29638537075016
s(I259
I2
tp618
F357.2336268102075
s(I283
I1
tp619
F318.54722580831003
s(I15
I3
tp620
F392.54627369099654
s(I208
I2
tp621
F346.6125721311666
s(I209
I3
tp622
F339.35493270183935
s(I51
I3
tp623
F344.387128782626
s(I4
I2
tp624
F144.37781345650438
s(I300
I3
tp625
F336.7845524944713
s(I5
I3
tp626
F121.19564549932194
s(I103
I3
tp627
F349.1026214272412
s(I190
I1
tp628
F362.17833593153694
s(I214
I2
tp629
F359.1491300304257
s(I301
I2
tp630
F352.56058450240386
s(I40
I2
tp631
F361.16401388941546
s(I143
I2
tp632
F376.5587809780985
s(I167
I1
tp633
F362.40198767303843
s(I41
I3
tp634
F341.7018139506551
s(I226
I1
tp635
F361.65803582355295
s(I250
I2
tp636
F370.988067347518
s(I92
I2
tp637
F350.87550510197246
s(I203
I1
tp638
F354.6837199837722
s(I290
I3
tp639
F327.1577705364286
s(I132
I3
tp640
F356.8185639298184
s(I93
I3
tp641
F354.3764110077199
s(I22
I1
tp642
F219.74039582373237
s(I46
I2
tp643
F339.1665465006231
s(I231
I2
tp644
F334.6101688943088
s(I255
I1
tp645
F345.1816907485644
s(I168
I3
tp646
F355.8495428992383
s(I58
I1
tp647
F332.28931158297667
s(I82
I2
tp648
F348.2477830468614
s(I11
I2
tp649
F377.07252449254327
s(I220
I3
tp650
F352.6413960216346
s(I284
I1
tp651
F334.2330872963926
s(I63
I2
tp652
F359.9348104352817
s(I261
I1
tp653
F333.85472928518317
s(I201
I1
tp654
F343.8971898650302
s(I1
I2
tp655
F170.5694936273985
s(I209
I2
tp656
F334.80370357567705
s(I210
I3
tp657
F350.8279480066443
s(I297
I1
tp658
F329.92008928867745
s(I52
I3
tp659
F373.8195984950509
s(I53
I2
tp660
F337.10013740209104
s(I6
I3
tp661
F375.36760749160885
s(I89
I2
tp662
F352.1611560678361
s(I42
I3
tp663
F349.7063842176723
s(I129
I1
tp664
F283.6599474110334
s(I204
I1
tp665
F376.389029829722
s(I291
I3
tp666
F343.4340497176861
s(I94
I3
tp667
F367.197189749935
s(I240
I1
tp668
F347.81368130187747
s(I217
I1
tp669
F355.96359518284663
s(I281
I3
tp670
F338.311095914054
s(I36
I1
tp671
F369.84933281097096
s(I13
I1
tp672
F92.49533731651682
s(I72
I1
tp673
F276.8097926130314
s(I262
I1
tp674
F353.4551765083596
s(I286
I2
tp675
F362.7110352349256
s(I211
I3
tp676
F379.7220403446385
s(I298
I1
tp677
F490.9902403617328
s(I275
I1
tp678
F330.4929630174229
s.