(dp0
(I7
I3
tp1
F316.3486898010966
s(I200
I2
tp2
F297.7608278415233
s(I303
I2
tp3
F306.4434362063229
s(I201
I3
tp4
F318.69397529409014
s(I43
I3
tp5
F298.83733671708495
s(I130
I1
tp6
F292.2627515341468
s(I154
I2
tp7
F309.8010634873965
s(I252
I2
tp8
F325.9617532522414
s(I292
I3
tp9
F301.1547596280572
s(I253
I3
tp10
F315.9790868806386
s(I95
I3
tp11
F304.7716280866701
s(I182
I1
tp12
F305.9140995429316
s(I206
I2
tp13
F302.7796747303138
s(I293
I2
tp14
F290.777637219714
s(I218
I1
tp15
F291.4505529063317
s(I242
I2
tp16
F288.29439356936103
s(I84
I2
tp17
F286.3163384266536
s(I195
I1
tp18
F288.9441649390838
s(I282
I3
tp19
F294.4108055055098
s(I14
I1
tp20
F303.612384741651
s(I38
I2
tp21
F275.78889589480434
s(I120
I2
tp22
F334.8499918829792
s(I223
I2
tp23
F304.0061131529186
s(I247
I1
tp24
F298.3298442229363
s(I50
I1
tp25
F296.7155493389247
s(I193
I2
tp26
F327.9180384018503
s(I3
I2
tp27
F80.11835220824992
s(I212
I3
tp28
F293.8007753880862
s(I102
I1
tp29
F274.3731175439789
s(I213
I2
tp30
F316.3362850478074
s(I55
I2
tp31
F301.7064740839327
s(I79
I1
tp32
F282.1244758482021
s(I248
I3
tp33
F296.26152897057875
s(I249
I2
tp34
F287.8191097621755
s(I91
I2
tp35
F312.1863198321989
s(I115
I1
tp36
F306.93331193088784
s(I202
I3
tp37
F325.79251353729916
s(I289
I1
tp38
F362.2912186860733
s(I44
I3
tp39
F288.45842866767623
s(I45
I2
tp40
F298.29106544866596
s(I254
I3
tp41
F305.17577016884724
s(I80
I3
tp42
F290.76961066087654
s(I81
I2
tp43
F293.181625796661
s(I93
I2
tp44
F305.8089906727772
s(I196
I1
tp45
F332.04046637269056
s(I283
I3
tp46
F314.7413008960897
s(I237
I1
tp47
F286.07158470242393
s(I232
I1
tp48
F312.9201797950852
s(I209
I1
tp49
F294.45332526079125
s(I273
I3
tp50
F321.78612192394746
s(I5
I1
tp51
I-1
s(I64
I1
tp52
F275.286520591905
s(I167
I3
tp53
F294.0421607002681
s(I278
I2
tp54
F318.3060104129115
s(I41
I1
tp55
F260.71685493129985
s(I116
I1
tp56
F266.90831754038743
s(I203
I3
tp57
F309.60057105757096
s(I290
I1
tp58
F292.2301626791662
s(I156
I2
tp59
F296.23579236861235
s(I267
I1
tp60
F316.38900725569005
s(I255
I3
tp61
F338.9705502461851
s(I192
I2
tp62
F296.3500509374801
s(I295
I2
tp63
F292.07387458069326
s(I193
I3
tp64
F306.49764657180407
s(I244
I2
tp65
F294.61257796164784
s(I284
I3
tp66
F293.5218547306597
s(I245
I3
tp67
F293.97446024780936
s(I198
I2
tp68
F313.93758561388364
s(I285
I2
tp69
F273.2232470657047
s(I210
I1
tp70
F290.8262328808448
s(I234
I2
tp71
F312.0949320431473
s(I76
I2
tp72
F282.81504423784526
s(I187
I1
tp73
F312.5614271952888
s(I274
I3
tp74
F309.0698234334748
s(I77
I3
tp75
F310.95715980963695
s(I6
I1
tp76
F309.3960468591813
s(I215
I2
tp77
F297.32337046051276
s(I239
I1
tp78
F289.09415218882435
s(I42
I1
tp79
F266.05244052826913
s(I66
I2
tp80
F302.92934034660396
s(I251
I2
tp81
F301.61644851390815
s(I19
I1
tp82
F297.8254780386512
s(I204
I3
tp83
F306.9073212278413
s(I94
I1
tp84
F291.4506823700637
s(I118
I2
tp85
F259.98769223382266
s(I268
I1
tp86
F289.71088378143
s(I47
I2
tp87
F311.99990081081
s(I71
I1
tp88
F286.42820905740285
s(I240
I3
tp89
F302.56220297233193
s(I304
I1
tp90
F257.49519694083403
s(I83
I2
tp91
F291.83404126649833
s(I107
I1
tp92
F271.21235142078945
s(I194
I3
tp93
F311.96495040117895
s(I281
I1
tp94
F292.8293447724402
s(I36
I3
tp95
F320.3154076860665
s(I132
I2
tp96
F290.2891662669462
s(I37
I2
tp97
F315.3228648520191
s(I246
I3
tp98
F311.7554894674097
s(I72
I3
tp99
F314.8145097288895
s(I221
I1
tp100
F291.14703668726895
s(I292
I1
tp101
F301.8349470861495
s(I188
I1
tp102
F309.9576011364793
s(I275
I3
tp103
F298.62838901835426
s(I78
I3
tp104
F296.4931875808071
s(I224
I1
tp105
F287.19984012426914
s(I201
I1
tp106
F337.48926839604457
s(I265
I3
tp107
F323.96567412204746
s(I20
I1
tp108
F185.15420286565472
s(I253
I1
tp109
F290.14400184191476
s(I56
I1
tp110
F280.16379675646573
s(I270
I2
tp111
F321.5732086610229
s(I168
I2
tp112
F298.4768482579512
s(I108
I1
tp113
F307.2895821887881
s(I195
I3
tp114
F299.91280386076306
s(I282
I1
tp115
F269.49017369433204
s(I306
I2
tp116
F282.6075793053548
s(I259
I1
tp117
F286.53711325259405
s(I247
I3
tp118
F308.6774549269583
s(I184
I2
tp119
F291.64912586268093
s(I287
I2
tp120
F292.90389367730825
s(I185
I3
tp121
F293.5516882882165
s(I236
I2
tp122
F292.2484444983598
s(I276
I3
tp123
F290.07379105363225
s(I237
I3
tp124
F296.35788609160966
s(I79
I3
tp125
F318.217053503683
s(I190
I2
tp126
F311.1820385598843
s(I277
I2
tp127
F318.33904562613105
s(I16
I2
tp128
F234.7919738592715
s(I143
I1
tp129
F294.35174318797453
s(I17
I3
tp130
F260.0225578914932
s(I115
I3
tp131
F298.2365164680475
s(I202
I1
tp132
F292.9582371346396
s(I226
I2
tp133
F330.4993500673563
s(I68
I2
tp134
F294.23191914030383
s(I155
I2
tp135
F292.423860685767
s(I266
I3
tp136
F290.6025766274661
s(I69
I3
tp137
F324.74634185393546
s(I254
I1
tp138
F305.954457078575
s(I22
I2
tp139
F215.72067648020317
s(I104
I2
tp140
F290.1096623261249
s(I207
I2
tp141
F291.1091028680105
s(I231
I1
tp142
F303.68000017081863
s(I144
I3
tp143
F304.7301577558695
s(I105
I3
tp144
F303.74916950159036
s(I58
I2
tp145
F294.18626777042994
s(I243
I2
tp146
F291.4041602400805
s(I11
I1
tp147
F125.1754748172362
s(I196
I3
tp148
F301.414778040826
s(I197
I2
tp149
F337.43504196953097
s(I39
I2
tp150
F291.52395215576485
s(I63
I1
tp151
F265.594180464367
s(I232
I3
tp152
F300.9342275286131
s(I205
I1
tp153
F323.81163487429467
s(I233
I2
tp154
F283.0740078485271
s(I276
I1
tp155
F288.2704477726976
s(I186
I3
tp156
F344.61751138193546
s(I273
I1
tp157
F293.35588571779317
s(I238
I3
tp158
F297.4363001713429
s(I64
I3
tp159
F296.1660338890311
s(I128
I1
tp160
F307.13679567419916
s(I18
I3
tp161
F301.3761479521274
s(I116
I3
tp162
F301.2704075488474
s(I180
I1
tp163
F301.9391473863707
s(I267
I3
tp164
F298.27809146841344
s(I70
I3
tp165
F299.3570875577016
s(I216
I1
tp166
F291.3608365416029
s(I106
I3
tp167
F313.85035672492245
s(I256
I2
tp168
F290.5235083980815
s(I257
I3
tp169
F324.0902659737208
s(I12
I1
tp170
F310.1139958836345
s(I245
I1
tp171
F292.1109636637225
s(I304
I2
tp172
F301.32183555835405
s(I48
I1
tp173
F262.3466229937962
s(I262
I2
tp174
F297.9244390542597
s(I187
I3
tp175
F292.8167299524872
s(I274
I1
tp176
F325.0010162198049
s(I298
I2
tp177
F298.36327023106924
s(I77
I1
tp178
F291.3600103893425
s(I141
I3
tp179
F296.66837079656824
s(I239
I3
tp180
F285.72336458632805
s(I279
I2
tp181
F296.6681289095144
s(I303
I1
tp182
F292.5634734090298
s(I19
I3
tp183
F272.8565472387494
s(I130
I2
tp184
F289.52827172612564
s(I228
I2
tp185
F312.8804650702126
s(I268
I3
tp186
F319.5669920941225
s(I229
I3
tp187
F306.5630009633637
s(I71
I3
tp188
F299.37826762393115
s(I182
I2
tp189
F289.7722031536965
s(I269
I2
tp190
F308.9553966491363
s(I8
I2
tp191
F114.12853437871993
s(I304
I3
tp192
F309.2117868305961
s(I9
I3
tp193
F105.91310069490252
s(I107
I3
tp194
F297.07577554621423
s(I194
I1
tp195
F291.97278893514806
s(I218
I2
tp196
F303.8380597127205
s(I305
I2
tp197
F305.0952749499151
s(I60
I2
tp198
F323.1318354534731
s(I258
I3
tp199
F296.676056644917
s(I246
I1
tp200
F297.17176870872703
s(I14
I2
tp201
F268.27795503979814
s(I96
I2
tp202
F287.1473798149787
s(I199
I2
tp203
F302.52527123648616
s(I223
I1
tp204
F301.9272514820974
s(I50
I2
tp205
F290.0048314999628
s(I260
I1
tp206
F295.07207101606
s(I235
I2
tp207
F290.0379494450846
s(I3
I1
tp208
F320.58614082183874
s(I188
I3
tp209
F289.8143509827311
s(I78
I1
tp210
F251.15398697535798
s(I102
I2
tp211
F293.07890766210016
s(I189
I2
tp212
F290.5357667550543
s(I55
I1
tp213
F265.53704902338274
s(I142
I3
tp214
F282.7384137475437
s(I224
I3
tp215
F284.18526109616374
s(I288
I1
tp216
F354.0629470658009
s(I67
I2
tp217
F289.3300318803228
s(I91
I1
tp218
F245.71593735908226
s(I265
I1
tp219
F296.10543845902987
s(I20
I3
tp220
F314.7047109854697
s(I21
I2
tp221
F278.91022437550333
s(I119
I2
tp222
F320.944582616173
s(I230
I3
tp223
F325.86524826932947
s(I237
I2
tp224
F344.41647910312525
s(I56
I3
tp225
F295.754280374188
s(I57
I2
tp226
F302.1046781350214
s(I10
I3
tp227
F28.13084595231938
s(I108
I3
tp228
F292.8976532840234
s(I144
I1
tp229
F317.09471517379495
s(I259
I3
tp230
F301.73096069116093
s(I288
I2
tp231
F298.1590902840305
s(I208
I1
tp232
F323.9285642865535
s(I185
I1
tp233
F298.409752675924
s(I4
I1
tp234
F35.206441535380655
s(I300
I2
tp235
F309.4025444229557
s(I301
I3
tp236
F278.8818507596131
s(I40
I1
tp237
F294.1381184702693
s(I143
I3
tp238
F318.9574913872453
s(I17
I1
tp239
F332.6540692138687
s(I92
I1
tp240
F297.7052565670744
s(I266
I1
tp241
F315.5736732097683
s(I290
I2
tp242
F311.0943516125247
s(I69
I1
tp243
F251.17867585181133
s(I231
I3
tp244
F294.1348547993552
s(I105
I1
tp245
F290.98800915332
s(I271
I2
tp246
F292.45875816323223
s(I295
I1
tp247
F487.0400772844118
s(I11
I3
tp248
F253.64299001507297
s(I220
I2
tp249
F310.9885508541959
s(I307
I2
tp250
F287.03134702197923
s(I260
I3
tp251
F327.8043314044807
s(I221
I3
tp252
F329.93925822325366
s(I63
I3
tp253
F317.8149538631736
s(I261
I2
tp254
F292.1962031797195
s(I1
I3
tp255
F137.99296406314596
s(I186
I1
tp256
F306.53066587121543
s(I210
I2
tp257
F292.21702828764694
s(I297
I2
tp258
F345.0019575621135
s(I52
I2
tp259
F302.6262858645855
s(I53
I3
tp260
F300.13423586718346
s(I238
I1
tp261
F318.23077100595617
s(I6
I2
tp262
F117.13466083693577
s(I191
I2
tp263
F302.2764326905186
s(I215
I1
tp264
F297.9308217940346
s(I302
I3
tp265
F298.2899133593053
s(I128
I3
tp266
F281.30096456618196
s(I89
I3
tp267
F302.6015820845611
s(I18
I1
tp268
F147.68554800787143
s(I42
I2
tp269
F290.0469548887852
s(I129
I2
tp270
F307.6108750970344
s(I227
I2
tp271
F325.4151603098046
s(I251
I1
tp272
F293.75475924520765
s(I180
I3
tp273
F323.4602375890375
s(I70
I1
tp274
F286.5402278018587
s(I94
I2
tp275
F298.9045247165975
s(I23
I2
tp276
F254.1395119647738
s(I47
I1
tp277
F312.19021933402564
s(I216
I3
tp278
F299.2713753416813
s(I106
I1
tp279
F275.9523779425488
s(I280
I1
tp280
F307.0040028819532
s(I59
I2
tp281
F300.0247673351248
s(I83
I1
tp282
F238.31640673607762
s(I257
I1
tp283
F287.1720878874112
s(I12
I3
tp284
F275.21841502020504
s(I65
I2
tp285
F310.78250347140556
s(I13
I2
tp286
F246.40277946082617
s(I222
I3
tp287
F292.809306185036
s(I48
I3
tp288
F299.0961964808912
s(I272
I2
tp289
F295.34212344717156
s(I217
I2
tp290
F335.5771494608165
s(I54
I3
tp291
F297.4638294498121
s(I141
I1
tp292
F289.78407600737137
s(I200
I1
tp293
F315.6899705546579
s(I303
I3
tp294
F281.97407531088214
s(I90
I3
tp295
F299.6375405133399
s(I252
I1
tp296
F291.93023195907506
s(I229
I1
tp297
F290.08129154446556
s(I293
I3
tp298
F321.03135722891886
s(I9
I1
tp299
F26.15305980420454
s(I117
I2
tp300
F312.58079921904886
s(I84
I1
tp301
F327.4500513134158
s(I258
I1
tp302
F289.4130434257137
s(I282
I2
tp303
F314.36675903319974
s(I120
I1
tp304
F282.7655554761799
s(I223
I3
tp305
F324.6584543534783
s(I263
I2
tp306
F359.1849098764855
s(I287
I1
tp307
F272.01930737911516
s(I3
I3
tp308
F110.34204310634867
s(I212
I2
tp309
F311.81302328369316
s(I299
I2
tp310
F304.305704825561
s(I213
I3
tp311
F291.8683845911288
s(I55
I3
tp312
F316.45252673131324
s(I142
I1
tp313
F249.1109615418987
s(I248
I2
tp314
F331.5989081778219
s(I288
I3
tp315
F308.90594580344305
s(I249
I3
tp316
F300.95910342882223
s(I91
I3
tp317
F315.00731459212034
s(I202
I2
tp318
F309.9259023255107
s(I289
I2
tp319
F306.9420427177186
s(I44
I2
tp320
F303.2250377987175
s(I131
I2
tp321
F309.1322693247385
s(I155
I1
tp322
F277.3478017365004
s(I45
I3
tp323
F306.43600376942163
s(I230
I1
tp324
F300.8664401006678
s(I254
I2
tp325
F288.2475592808548
s(I80
I2
tp326
F289.93138523672
s(I183
I2
tp327
F317.6834469535218
s(I207
I1
tp328
F284.71452222012437
s(I294
I3
tp329
F294.6207111218513
s(I81
I3
tp330
F307.13671773323233
s(I10
I1
tp331
I-1
s(I219
I2
tp332
F299.6650624438961
s(I243
I1
tp333
F338.8365686438733
s(I15
I2
tp334
F222.468608877348
s(I39
I1
tp335
F265.8660281652494
s(I208
I3
tp336
F291.2389275804681
s(I193
I1
tp337
F323.08003520848916
s(I209
I2
tp338
F289.6265777055169
s(I264
I1
tp339
F291.5184205983027
s(I51
I2
tp340
F287.78528411378903
s(I4
I3
tp341
F27.71009695202835
s(I5
I2
tp342
F317.90704714617766
s(I103
I2
tp343
F290.73750329238715
s(I214
I3
tp344
F288.64276564245733
s(I301
I1
tp345
F256.3104247981234
s(I40
I3
tp346
F313.36591655179336
s(I41
I2
tp347
F295.93485942941464
s(I250
I3
tp348
F334.5844525320035
s(I92
I3
tp349
F300.7489863312235
s(I156
I1
tp350
F291.9065761244922
s(I46
I3
tp351
F299.4488303735272
s(I192
I1
tp352
F310.13815407275297
s(I295
I3
tp353
F290.55047605917844
s(I82
I3
tp354
F302.054352373609
s(I93
I1
tp355
F283.25535580039985
s(I244
I1
tp356
F289.9193432846051
s(I284
I2
tp357
F308.3188929527193
s(I285
I3
tp358
F308.9470976670921
s(I1
I1
tp359
F56.2703157939213
s(I76
I1
tp360
F268.5300852252399
s(I274
I2
tp361
F288.0027720276167
s(I53
I1
tp362
F310.28016133293596
s(I215
I3
tp363
F318.10649074059734
s(I302
I1
tp364
F371.9341919577123
s(I89
I1
tp365
F267.6315954287073
s(I279
I1
tp366
F296.3606848356449
s(I251
I3
tp367
F330.33264990467376
s(I204
I2
tp368
F315.576221048178
s(I291
I2
tp369
F318.1407471718359
s(I205
I3
tp370
F289.7174108715545
s(I47
I3
tp371
F297.2237191172242
s(I240
I2
tp372
F301.7746623619371
s(I280
I3
tp373
F303.09538538048446
s(I241
I3
tp374
F294.67596223012293
s(I83
I3
tp375
F311.8543428715648
s(I194
I2
tp376
F290.63833275103735
s(I281
I2
tp377
F310.52047138709696
s(I36
I2
tp378
F287.5134264830283
s(I37
I3
tp379
F303.64166343699657
s(I222
I1
tp380
F297.718389519145
s(I246
I2
tp381
F294.05402235502584
s(I72
I2
tp382
F290.9457921883743
s(I199
I1
tp383
F302.1635186797975
s(I286
I3
tp384
F323.2587966418179
s(I211
I2
tp385
F298.9217953651001
s(I235
I1
tp386
F290.82236710022875
s(I54
I1
tp387
F283.39583681418287
s(I78
I2
tp388
F315.22649929079734
s(I7
I2
tp389
F35.743275700363306
s(I200
I3
tp390
F296.047259407907
s(I90
I1
tp391
F282.940750177267
s(I201
I2
tp392
F296.2948428396377
s(I43
I2
tp393
F334.2979877874924
s(I67
I1
tp394
F287.9358616458388
s(I154
I3
tp395
F295.0770938352821
s(I252
I3
tp396
F291.74917093643666
s(I253
I2
tp397
F304.3142153275137
s(I95
I2
tp398
F310.1557000359712
s(I119
I1
tp399
F270.30144315000024
s(I206
I3
tp400
F322.06385227994497
s(I293
I1
tp401
F262.9392610134538
s(I242
I3
tp402
F306.56802127771306
s(I84
I3
tp403
F290.7886302239219
s(I38
I3
tp404
F302.4559487468039
s(I120
I3
tp405
F293.85189778525535
s(I292
I2
tp406
F302.21419502231095
s(I184
I1
tp407
F301.44809710305367
s(I287
I3
tp408
F318.49835257810116
s(I236
I1
tp409
F331.66826101584365
s(I213
I1
tp410
F291.2458477036314
s(I277
I3
tp411
F292.1863644455853
s(I16
I1
tp412
F200.0177840236827
s(I249
I1
tp413
F318.82965869504955
s(I68
I1
tp414
F310.63939222412756
s(I155
I3
tp415
F334.2887406966927
s(I266
I2
tp416
F292.76073868744373
s(I45
I1
tp417
F305.1061839202192
s(I104
I1
tp418
F293.40871985594373
s(I207
I3
tp419
F326.464088833222
s(I294
I1
tp420
F304.3758438391514
s(I144
I2
tp421
F294.74339429895923
s(I271
I1
tp422
F292.77822010243943
s(I243
I3
tp423
F291.6819525294752
s(I196
I2
tp424
F288.8633068804847
s(I283
I2
tp425
F291.617405742408
s(I307
I1
tp426
F287.4301542918757
s(I197
I3
tp427
F293.83124839044706
s(I39
I3
tp428
F298.37008913014756
s(I232
I2
tp429
F303.44026958439224
s(I272
I3
tp430
F306.10100027986215
s(I233
I3
tp431
F296.1795852125047
s(I186
I2
tp432
F288.5476742246673
s(I273
I2
tp433
F303.5580746855953
s(I214
I1
tp434
F307.55917916421447
s(I238
I2
tp435
F298.76794659803835
s(I64
I2
tp436
F311.6595959335285
s(I167
I2
tp437
F305.4047125403281
s(I191
I1
tp438
F287.0159602964128
s(I278
I3
tp439
F291.0943507534926
s(I65
I3
tp440
F303.5281696279035
s(I250
I1
tp441
F281.1636820726218
s(I18
I2
tp442
F207.8671102142166
s(I116
I2
tp443
F299.826617727082
s(I203
I2
tp444
F287.92526104597135
s(I227
I1
tp445
F289.82808115356585
s(I156
I3
tp446
F322.6876981329399
s(I117
I3
tp447
F293.91280817984193
s(I46
I1
tp448
F273.82783441292077
s(I70
I2
tp449
F316.2846158693807
s(I255
I2
tp450
F290.328091553121
s(I23
I1
tp451
F204.58013233926116
s(I192
I3
tp452
F311.8342384030648
s(I82
I1
tp453
F286.2159674573304
s(I106
I2
tp454
F293.7313700574774
s(I256
I1
tp455
F293.9750122328465
s(I59
I1
tp456
F266.5159436161958
s(I244
I3
tp457
F319.7099631331961
s(I132
I1
tp458
F239.0917046852432
s(I245
I2
tp459
F312.4633998263946
s(I198
I3
tp460
F293.6539991802602
s(I285
I1
tp461
F293.3323325505441
s(I276
I2
tp462
F321.76529695061004
s(I284
I1
tp463
F308.1917865175271
s(I234
I3
tp464
F284.0590319588687
s(I76
I3
tp465
F305.38498608811227
s(I77
I2
tp466
F280.39714752856327
s(I279
I3
tp467
F330.85868778375095
s(I66
I3
tp468
F305.6223410683761
s(I225
I2
tp469
F316.0716235861531
s(I228
I1
tp470
F288.8199825473887
s(I118
I3
tp471
F311.68478087762327
s(I268
I2
tp472
F292.6831707483018
s(I269
I3
tp473
F294.2049673005043
s(I8
I1
tp474
F312.6968852648815
s(I241
I1
tp475
F306.13038713643203
s(I168
I1
tp476
F290.7235740287238
s(I305
I3
tp477
F337.4832934392435
s(I60
I1
tp478
F299.0502674605705
s(I258
I2
tp479
F316.85823564586565
s(I37
I1
tp480
F288.5024428131985
s(I96
I1
tp481
F312.9978380084675
s(I199
I3
tp482
F292.4667180239966
s(I286
I1
tp483
F283.31069330931876
s(I263
I1
tp484
F286.23232568772244
s(I235
I3
tp485
F329.46253774739733
s(I188
I2
tp486
F291.235132603206
s(I275
I2
tp487
F290.55114608755895
s(I299
I1
tp488
F306.40363569841287
s(I189
I3
tp489
F330.68684245181436
s(I142
I2
tp490
F311.57289697317907
s(I224
I2
tp491
F332.1798422188922
s(I264
I3
tp492
F303.0527384981217
s(I225
I3
tp493
F291.39207317085777
s(I67
I3
tp494
F320.73692259246667
s(I154
I1
tp495
F302.3344837906461
s(I265
I2
tp496
F287.3583832720649
s(I20
I2
tp497
F214.42185288146845
s(I131
I1
tp498
F279.7521066723732
s(I21
I3
tp499
F247.99171162142068
s(I119
I3
tp500
F294.7074421391982
s(I206
I1
tp501
F294.57568724859516
s(I230
I2
tp502
F297.8004513582847
s(I56
I2
tp503
F294.2088291162014
s(I183
I1
tp504
F292.7767520701055
s(I270
I3
tp505
F290.5696833978145
s(I57
I3
tp506
F292.3799930069936
s(I242
I1
tp507
F309.8155130507035
s(I10
I2
tp508
F317.8223349800538
s(I108
I2
tp509
F306.9585893616394
s(I195
I2
tp510
F296.2395687606684
s(I219
I1
tp511
F284.903147539671
s(I306
I3
tp512
F333.84910953570926
s(I38
I1
tp513
F330.07412600990364
s(I247
I2
tp514
F290.8048334736602
s(I15
I1
tp515
F173.82646048442408
s(I184
I3
tp516
F291.62324516731826
s(I197
I1
tp517
F303.9503773701874
s(I185
I2
tp518
F317.66524803110906
s(I205
I2
tp519
F295.2134729767159
s(I51
I1
tp520
F309.05207520342435
s(I236
I3
tp521
F295.30975101736624
s(I300
I1
tp522
F406.46593443646196
s(I79
I2
tp523
F300.8194584207511
s(I103
I1
tp524
F300.9754802583072
s(I190
I3
tp525
F284.63021463703865
s(I277
I1
tp526
F303.9982815643088
s(I16
I3
tp527
F308.1519321478626
s(I17
I2
tp528
F197.13489026688362
s(I115
I2
tp529
F286.3676078497473
s(I226
I3
tp530
F290.47637813994845
s(I68
I3
tp531
F293.1396270398741
s(I69
I2
tp532
F299.46404721117955
s(I22
I3
tp533
F327.99730211710903
s(I104
I3
tp534
F292.60198932180623
s(I105
I2
tp535
F295.7458185814309
s(I271
I3
tp536
F305.97001340104134
s(I58
I3
tp537
F303.9702210693774
s(I81
I1
tp538
F287.47258291858316
s(I220
I1
tp539
F316.0196762287688
s(I307
I3
tp540
F303.64326753330397
s(I260
I2
tp541
F290.3473990858321
s(I261
I3
tp542
F286.56553806447056
s(I241
I2
tp543
F291.9066109008554
s(I233
I1
tp544
F285.0955151530351
s(I297
I3
tp545
F339.29786993711895
s(I52
I1
tp546
F301.2891206514268
s(I191
I3
tp547
F332.52491129365353
s(I278
I1
tp548
F298.23136996853333
s(I302
I2
tp549
F309.2899368165274
s(I65
I1
tp550
F265.0050288975934
s(I129
I3
tp551
F306.0170932777354
s(I227
I3
tp552
F294.70662537419116
s(I180
I2
tp553
F288.73402526657725
s(I267
I2
tp554
F302.9014839419089
s(I291
I1
tp555
F315.27742666713056
s(I23
I3
tp556
F297.8475419421346
s(I216
I2
tp557
F305.7603986429307
s(I256
I3
tp558
F327.03804297278424
s(I217
I3
tp559
F296.47710002904
s(I59
I3
tp560
F313.25369727467825
s(I257
I2
tp561
F297.3684487163569
s(I12
I2
tp562
F258.0774712148662
s(I13
I3
tp563
F326.4999046665254
s(I198
I1
tp564
F279.6570534393146
s(I222
I2
tp565
F321.82626102326765
s(I48
I2
tp566
F307.9842338572092
s(I262
I3
tp567
F342.21660530833475
s(I234
I1
tp568
F290.2478588595544
s(I187
I2
tp569
F287.98777080226216
s(I211
I1
tp570
F334.40746009609103
s(I298
I3
tp571
F281.2999911730798
s(I54
I2
tp572
F308.03221479795627
s(I141
I2
tp573
F307.7334973381586
s(I239
I2
tp574
F303.52065842677445
s(I7
I1
tp575
I-1
s(I66
I1
tp576
F319.0433485788101
s(I90
I2
tp577
F295.4298903240953
s(I19
I2
tp578
F279.66459933068853
s(I43
I1
tp579
F305.8940384020532
s(I130
I3
tp580
F330.96473590681546
s(I228
I3
tp581
F289.5379517513678
s(I118
I1
tp582
F281.91707786322365
s(I229
I2
tp583
F290.8223337551525
s(I71
I2
tp584
F318.377705962259
s(I95
I1
tp585
F323.5766043599977
s(I182
I3
tp586
F291.5630362786302
s(I269
I1
tp587
F287.53897378222644
s(I8
I3
tp588
F199.68741122280568
s(I9
I2
tp589
F332.91761434567997
s(I107
I2
tp590
F300.85037390055896
s(I218
I3
tp591
F290.3030820945218
s(I305
I1
tp592
F428.08292374090684
s(I60
I3
tp593
F290.38967645722687
s(I128
I2
tp594
F299.43489843305963
s(I14
I3
tp595
F198.75656041192912
s(I96
I3
tp596
F290.78988562889697
s(I217
I1
tp597
F285.6467949555252
s(I263
I3
tp598
F284.1718931537259
s(I50
I3
tp599
F323.01392703685633
s(I212
I1
tp600
F294.22851733942935
s(I299
I3
tp601
F305.92005858461744
s(I102
I3
tp602
F329.651269511882
s(I189
I1
tp603
F289.9239667847922
s(I248
I1
tp604
F289.07421737810034
s(I225
I1
tp605
F287.24764617243125
s(I289
I3
tp606
F297.7910176470031
s(I44
I1
tp607
F267.11043331060006
s(I131
I3
tp608
F294.11206839830675
s(I21
I1
tp609
F321.0096963329047
s(I80
I1
tp610
F219.4320658083793
s(I183
I3
tp611
F288.7907901753059
s(I270
I1
tp612
F286.5365388265036
s(I294
I2
tp613
F312.66898202953314
s(I57
I1
tp614
F291.2623723348329
s(I117
I1
tp615
F279.88325799096646
s(I219
I3
tp616
F286.2587379145213
s(I306
I1
tp617
F279.88378085656933
s(I259
I2
tp618
F281.22214104523584
s(I283
I1
tp619
F282.03063334165734
s(I15
I3
tp620
F324.7195668902755
s(I208
I2
tp621
F294.5174474905835
s(I209
I3
tp622
F308.04277534404827
s(I51
I3
tp623
F300.14745934466595
s(I4
I2
tp624
F323.3881617058571
s(I300
I3
tp625
F297.62387711707464
s(I5
I3
tp626
F64.70906429262894
s(I103
I3
tp627
F317.0293152929691
s(I190
I1
tp628
F296.1100447879529
s(I214
I2
tp629
F294.39714876299774
s(I301
I2
tp630
F312.9552694477511
s(I40
I2
tp631
F299.4871704331094
s(I143
I2
tp632
F306.03021160643016
s(I167
I1
tp633
F250.5194867913767
s(I41
I3
tp634
F301.6427488922977
s(I226
I1
tp635
F291.3593111968795
s(I250
I2
tp636
F295.6900878117397
s(I92
I2
tp637
F306.4787670541051
s(I203
I1
tp638
F295.6406727965163
s(I290
I3
tp639
F245.97799790893467
s(I132
I3
tp640
F302.11364862775883
s(I93
I3
tp641
F319.71226768768986
s(I22
I1
tp642
F96.05485070938636
s(I46
I2
tp643
F323.87973842893786
s(I231
I2
tp644
F305.8324120397602
s(I255
I1
tp645
F293.92182515659937
s(I168
I3
tp646
F305.0092131366398
s(I58
I1
tp647
F302.4212894398646
s(I82
I2
tp648
F289.20144971014224
s(I11
I2
tp649
F289.6674637100782
s(I220
I3
tp650
F303.98249215377587
s(I221
I2
tp651
F289.9115810773109
s(I63
I2
tp652
F289.9707365784613
s(I261
I1
tp653
F315.73673470343186
s(I264
I2
tp654
F290.1336561556488
s(I1
I2
tp655
F319.5121490520488
s(I272
I1
tp656
F289.5598685783691
s(I210
I3
tp657
F325.09390821471925
s(I297
I1
tp658
F363.065920286899
s(I52
I3
tp659
F302.6006785821547
s(I53
I2
tp660
F296.8364171216518
s(I6
I3
tp661
F108.37886346086722
s(I89
I2
tp662
F282.5658133036748
s(I42
I3
tp663
F309.23195827769825
s(I129
I1
tp664
F296.31008824738774
s(I204
I1
tp665
F295.75565587499204
s(I291
I3
tp666
F295.77471918430155
s(I94
I3
tp667
F321.2603070725985
s(I240
I1
tp668
F311.4511502468292
s(I280
I2
tp669
F328.0577050297221
s(I281
I3
tp670
F290.73994549777086
s(I36
I1
tp671
F289.6345009112958
s(I13
I1
tp672
F238.16592778165278
s(I72
I1
tp673
F288.2318362946819
s(I262
I1
tp674
F296.97138880857074
s(I286
I2
tp675
F296.6505030039892
s(I211
I3
tp676
F301.2299163262789
s(I298
I1
tp677
F348.8455368592121
s(I275
I1
tp678
F326.40075236688176
s.