(dp0
(I7
I3
tp1
F167.5142768008531
s(I200
I2
tp2
F287.4644974210637
s(I303
I2
tp3
F268.69392460469703
s(I201
I3
tp4
F296.5985021132819
s(I43
I3
tp5
F307.63103190174104
s(I130
I1
tp6
F291.88165329063094
s(I154
I2
tp7
F312.3343943947613
s(I252
I2
tp8
F293.62991445747235
s(I292
I3
tp9
F283.708142892568
s(I253
I3
tp10
F295.54750652134464
s(I95
I3
tp11
F293.10092183887593
s(I182
I1
tp12
F295.64665492363974
s(I206
I2
tp13
F289.6554614693531
s(I293
I2
tp14
F282.58297991140114
s(I218
I1
tp15
F298.54639493848845
s(I242
I2
tp16
F290.53159108842885
s(I84
I2
tp17
F293.24720191810314
s(I195
I1
tp18
F289.8844522145618
s(I282
I3
tp19
F293.7037546337417
s(I14
I1
tp20
F175.15140062690432
s(I38
I2
tp21
F294.45716911285797
s(I120
I2
tp22
F305.4121563887704
s(I223
I2
tp23
F304.6446616959833
s(I247
I1
tp24
F300.91963392021404
s(I50
I1
tp25
F305.438083939453
s(I193
I2
tp26
F288.0159872594121
s(I3
I2
tp27
F147.34928822468393
s(I212
I3
tp28
F295.6501293063536
s(I102
I1
tp29
F300.51974945533874
s(I276
I1
tp30
F306.9493619459762
s(I55
I2
tp31
F294.026896898897
s(I79
I1
tp32
F306.22834646910405
s(I248
I3
tp33
F304.34617600206025
s(I249
I2
tp34
F289.86820176617454
s(I91
I2
tp35
F295.6984855037708
s(I115
I1
tp36
F310.3975879044341
s(I202
I3
tp37
F290.5358737410882
s(I289
I1
tp38
F260.0626721671012
s(I44
I3
tp39
F300.07988404763546
s(I45
I2
tp40
F301.0019389389691
s(I254
I3
tp41
F301.2964040578985
s(I80
I3
tp42
F291.38494400295974
s(I144
I1
tp43
F296.54472866195346
s(I156
I1
tp44
F301.8470541719414
s(I196
I1
tp45
F280.87396249745734
s(I283
I3
tp46
F300.2361181466137
s(I237
I1
tp47
F286.82556915638344
s(I232
I1
tp48
F291.9031335426815
s(I209
I1
tp49
F310.26359148385006
s(I273
I3
tp50
F312.33640712433487
s(I5
I1
tp51
F313.02589774271775
s(I64
I1
tp52
F296.57590346617434
s(I167
I3
tp53
F297.60621651151877
s(I278
I2
tp54
F289.54150029702174
s(I41
I1
tp55
F305.9959887883025
s(I116
I1
tp56
F293.1736485106135
s(I203
I3
tp57
F301.3879509651011
s(I290
I1
tp58
F266.7470563145285
s(I93
I1
tp59
F297.95680611599835
s(I267
I1
tp60
F297.97885025913223
s(I255
I3
tp61
F300.1973585030525
s(I192
I2
tp62
F285.2270321568311
s(I295
I2
tp63
F360.09703077085425
s(I193
I3
tp64
F292.7759253842279
s(I244
I2
tp65
F294.39480329173455
s(I284
I3
tp66
F301.7597043634373
s(I245
I3
tp67
F283.4480816100812
s(I198
I2
tp68
F310.77243224895506
s(I285
I2
tp69
F296.4061696435457
s(I210
I1
tp70
F299.0522236437936
s(I234
I2
tp71
F299.86475501441635
s(I76
I2
tp72
F309.72462342610635
s(I187
I1
tp73
F288.13753999865986
s(I274
I3
tp74
F297.50665272885647
s(I77
I3
tp75
F296.25096824243997
s(I6
I1
tp76
F298.358856646463
s(I215
I2
tp77
F293.34929753999154
s(I239
I1
tp78
F284.79036801696355
s(I42
I1
tp79
F296.7504708133402
s(I66
I2
tp80
F306.63502574300315
s(I251
I2
tp81
F286.59085054280365
s(I19
I1
tp82
F298.47743467507144
s(I204
I3
tp83
F297.2323583519717
s(I94
I1
tp84
F320.09847990157425
s(I118
I2
tp85
F303.66713442608284
s(I268
I1
tp86
F309.84022044985153
s(I47
I2
tp87
F288.44496634334837
s(I71
I1
tp88
F309.61518808321176
s(I240
I3
tp89
F297.91024138622015
s(I304
I1
tp90
F330.68883997779403
s(I83
I2
tp91
F304.5709090811943
s(I107
I1
tp92
F289.5249094968919
s(I194
I3
tp93
F284.9281393793005
s(I281
I1
tp94
F298.71679804931995
s(I36
I3
tp95
F293.22209427162704
s(I132
I2
tp96
F298.5608731677555
s(I37
I2
tp97
F303.86076437514157
s(I246
I3
tp98
F282.5242344061224
s(I72
I3
tp99
F303.6616179663214
s(I221
I1
tp100
F306.40624880067406
s(I229
I2
tp101
F284.99728771493506
s(I188
I1
tp102
F288.36143524625277
s(I275
I3
tp103
F288.27533478517705
s(I78
I3
tp104
F292.4932267000524
s(I224
I1
tp105
F289.0744000178406
s(I201
I1
tp106
F309.4914469169758
s(I265
I3
tp107
F302.6881558138693
s(I20
I1
tp108
F299.5808543590477
s(I253
I1
tp109
F330.19457108343255
s(I56
I1
tp110
F297.8776290888357
s(I270
I2
tp111
F289.29179092923755
s(I105
I1
tp112
F304.0180770503237
s(I108
I1
tp113
F299.4521450702908
s(I195
I3
tp114
F298.28308535741104
s(I282
I1
tp115
F323.34140373000713
s(I306
I2
tp116
F302.4672873873979
s(I259
I1
tp117
F317.0730885784806
s(I247
I3
tp118
F292.4600742353337
s(I184
I2
tp119
F285.069478750596
s(I287
I2
tp120
F300.577657645391
s(I185
I3
tp121
F290.9896672184075
s(I236
I2
tp122
F296.65458423834696
s(I276
I3
tp123
F287.0456281454152
s(I237
I3
tp124
F305.7308548664066
s(I79
I3
tp125
F292.62177829724556
s(I190
I2
tp126
F289.0567556581755
s(I277
I2
tp127
F305.58081966319037
s(I16
I2
tp128
F319.2321971984958
s(I143
I1
tp129
F310.16493133294296
s(I17
I3
tp130
F298.86009207484915
s(I115
I3
tp131
F291.1096165029829
s(I202
I1
tp132
F287.0691970338192
s(I226
I2
tp133
F295.41112149458297
s(I68
I2
tp134
F298.0869502047406
s(I155
I2
tp135
F307.9217663460562
s(I266
I3
tp136
F300.80909448518236
s(I69
I3
tp137
F289.79514180010773
s(I254
I1
tp138
F309.0846734921837
s(I22
I2
tp139
F313.46086939308276
s(I104
I2
tp140
F316.28503572854913
s(I207
I2
tp141
F299.3481138442681
s(I231
I1
tp142
F292.425278285429
s(I144
I3
tp143
F308.2219935584461
s(I105
I3
tp144
F293.54576418017575
s(I58
I2
tp145
F292.46905734923297
s(I243
I2
tp146
F311.935494078971
s(I11
I1
tp147
F263.70562986798325
s(I196
I3
tp148
F281.0035383177088
s(I197
I2
tp149
F298.03143413285716
s(I39
I2
tp150
F297.85209299427555
s(I63
I1
tp151
F296.6276461152787
s(I232
I3
tp152
F299.30299097622185
s(I205
I1
tp153
F292.8639554528164
s(I233
I2
tp154
F314.1957079179848
s(I213
I2
tp155
F290.62437963782713
s(I186
I3
tp156
F285.74511456569576
s(I273
I1
tp157
F290.30717435944814
s(I238
I3
tp158
F287.72580575731445
s(I64
I3
tp159
F317.59381515970824
s(I65
I2
tp160
F296.780684931261
s(I18
I3
tp161
F284.8811829040207
s(I116
I3
tp162
F288.39768096646515
s(I180
I1
tp163
F328.5297518295599
s(I267
I3
tp164
F322.5121622346273
s(I70
I3
tp165
F296.6667794078563
s(I216
I1
tp166
F325.24209612483395
s(I106
I3
tp167
F299.323812371052
s(I256
I2
tp168
F290.92758027246447
s(I257
I3
tp169
F291.56780447572737
s(I12
I1
tp170
F251.56116031274556
s(I245
I1
tp171
F292.6994355855257
s(I241
I1
tp172
F284.75845470156804
s(I48
I1
tp173
F318.6544366041749
s(I262
I2
tp174
F291.5471451872971
s(I187
I3
tp175
F282.47388303193986
s(I274
I1
tp176
F289.33901023950233
s(I298
I2
tp177
F290.3933183997698
s(I77
I1
tp178
F290.39796117904115
s(I141
I3
tp179
F298.64553392298353
s(I239
I3
tp180
F292.5875069586832
s(I279
I2
tp181
F301.7380447611335
s(I303
I1
tp182
F240.65229732690165
s(I19
I3
tp183
F276.359533581546
s(I130
I2
tp184
F294.3844646335823
s(I228
I2
tp185
F283.714193531025
s(I268
I3
tp186
F299.49944408667835
s(I229
I3
tp187
F287.5419763649519
s(I71
I3
tp188
F300.52652246922526
s(I182
I2
tp189
F293.4431625338654
s(I269
I2
tp190
F307.34710168585326
s(I8
I2
tp191
F61.4458243137131
s(I304
I3
tp192
F254.38210190027047
s(I9
I3
tp193
F180.64862087465053
s(I107
I3
tp194
F324.8139541565358
s(I194
I1
tp195
F318.2170014342775
s(I218
I2
tp196
F287.4405945935744
s(I305
I2
tp197
F315.37997522046703
s(I60
I2
tp198
F293.41333563291886
s(I258
I3
tp199
F294.3532619538148
s(I246
I1
tp200
F283.6637953838994
s(I14
I2
tp201
F309.1568406863911
s(I96
I2
tp202
F317.2260043650258
s(I199
I2
tp203
F295.9273289003655
s(I223
I1
tp204
F288.1997646541432
s(I50
I2
tp205
F301.9102258070513
s(I260
I1
tp206
F285.55030268913396
s(I235
I2
tp207
F293.67601500291187
s(I3
I1
tp208
F123.85358123195013
s(I188
I3
tp209
F282.32242164555606
s(I78
I1
tp210
F325.71869218965236
s(I102
I2
tp211
F299.73878975355075
s(I189
I2
tp212
F307.7686327186055
s(I55
I1
tp213
F317.6178145911327
s(I142
I3
tp214
F320.1523785862272
s(I224
I3
tp215
F315.80385788627785
s(I288
I1
tp216
F260.2361295604499
s(I67
I2
tp217
F298.9643974443746
s(I91
I1
tp218
F298.1502456017566
s(I265
I1
tp219
F288.4402351049686
s(I20
I3
tp220
F263.2159115185587
s(I21
I2
tp221
F290.76465808209264
s(I119
I2
tp222
F298.226164568494
s(I230
I3
tp223
F308.2634682862494
s(I56
I3
tp224
F290.2791200723529
s(I57
I2
tp225
F292.0597296598681
s(I10
I3
tp226
F193.66753682372794
s(I108
I3
tp227
F303.1282211458417
s(I81
I2
tp228
F296.6516243168558
s(I259
I3
tp229
F299.53853740887797
s(I288
I2
tp230
F248.1856109464937
s(I208
I1
tp231
F286.2723639969513
s(I185
I1
tp232
F293.435572175663
s(I4
I1
tp233
F143.9077941815408
s(I300
I2
tp234
F268.7470286359405
s(I301
I3
tp235
F296.65840127847343
s(I40
I1
tp236
F294.21640361684763
s(I143
I3
tp237
F306.18236299267113
s(I17
I1
tp238
F255.36683128864044
s(I92
I1
tp239
F294.5739838140459
s(I266
I1
tp240
F322.04243946583915
s(I290
I2
tp241
F292.89344068395826
s(I69
I1
tp242
F290.0273429653337
s(I231
I3
tp243
F287.35705592597293
s(I168
I2
tp244
F298.2830353281977
s(I271
I2
tp245
F285.84415597868264
s(I295
I1
tp246
F310.1607616549377
s(I11
I3
tp247
F316.4648410242475
s(I220
I2
tp248
F292.90008241525555
s(I307
I2
tp249
F250.57519568399462
s(I260
I3
tp250
F298.3447772487757
s(I221
I3
tp251
F288.30739979330247
s(I63
I3
tp252
F296.19299658496243
s(I261
I2
tp253
F308.55448525734187
s(I1
I3
tp254
F168.73041595264053
s(I186
I1
tp255
F310.0413301860527
s(I210
I2
tp256
F296.43624442138594
s(I297
I2
tp257
F338.0729707907128
s(I52
I2
tp258
F296.0994340502638
s(I53
I3
tp259
F296.5748792443501
s(I238
I1
tp260
F313.22757886534544
s(I6
I2
tp261
F116.25662518203701
s(I191
I2
tp262
F288.3938170696715
s(I215
I1
tp263
F287.0219685887249
s(I302
I3
tp264
F321.7152831221478
s(I128
I3
tp265
F317.4227996283689
s(I89
I3
tp266
F292.53096356467233
s(I18
I1
tp267
F321.1080233336524
s(I42
I2
tp268
F303.5555172768248
s(I129
I2
tp269
F294.54657734090273
s(I227
I2
tp270
F288.62007103772294
s(I251
I1
tp271
F286.05153151939567
s(I180
I3
tp272
F283.0206846465744
s(I70
I1
tp273
F301.1803305104777
s(I94
I2
tp274
F299.51211625262323
s(I23
I2
tp275
F314.6761376411285
s(I47
I1
tp276
F312.28574987236675
s(I216
I3
tp277
F291.5153775423197
s(I106
I1
tp278
F314.1191982436847
s(I280
I1
tp279
F293.3022086747711
s(I59
I2
tp280
F295.1212340096773
s(I83
I1
tp281
F300.1316003178141
s(I257
I1
tp282
F292.17201447569767
s(I12
I3
tp283
F274.57210002472607
s(I128
I1
tp284
F296.82874014230987
s(I13
I2
tp285
F296.6564707891752
s(I222
I3
tp286
F289.894918268438
s(I48
I3
tp287
F302.6887356879271
s(I272
I2
tp288
F278.255779207411
s(I217
I2
tp289
F278.0008211990177
s(I54
I3
tp290
F308.2214430961828
s(I141
I1
tp291
F297.423332556704
s(I200
I1
tp292
F288.18128014370996
s(I303
I3
tp293
F304.60025547413284
s(I90
I3
tp294
F293.1349332314854
s(I252
I1
tp295
F316.8720455272152
s(I229
I1
tp296
F285.02719275723484
s(I293
I3
tp297
F310.29583138515835
s(I9
I1
tp298
F108.98603108779119
s(I117
I2
tp299
F292.8370817119213
s(I84
I1
tp300
F291.95427988187544
s(I258
I1
tp301
F295.4441849873296
s(I282
I2
tp302
F276.04034873271496
s(I120
I1
tp303
F301.1426988823047
s(I223
I3
tp304
F290.42798337319147
s(I263
I2
tp305
F287.8910406372415
s(I287
I1
tp306
F244.31953677475497
s(I3
I3
tp307
F345.4755999683631
s(I212
I2
tp308
F305.87965806235115
s(I299
I2
tp309
F338.2463061882576
s(I213
I3
tp310
F298.16977850106946
s(I55
I3
tp311
F298.9093244507215
s(I142
I1
tp312
F299.1376068939313
s(I248
I2
tp313
F287.065783115389
s(I288
I3
tp314
F330.5196054216611
s(I249
I3
tp315
F290.1352508668569
s(I91
I3
tp316
F297.14807502472985
s(I202
I2
tp317
F301.19269404529325
s(I289
I2
tp318
F266.4110752172195
s(I44
I2
tp319
F299.4174084309419
s(I131
I2
tp320
F299.17007908830436
s(I155
I1
tp321
F326.6404583205903
s(I45
I3
tp322
F295.99085685358193
s(I230
I1
tp323
F287.9393452137377
s(I254
I2
tp324
F297.24540069696235
s(I80
I2
tp325
F296.62824710126506
s(I183
I2
tp326
F285.13699667326847
s(I207
I1
tp327
F296.5303869437836
s(I294
I3
tp328
F306.17834432099335
s(I81
I3
tp329
F306.9342148673727
s(I10
I1
tp330
F312.0899103014755
s(I219
I2
tp331
F288.0342030292938
s(I243
I1
tp332
F289.74173878956475
s(I15
I2
tp333
F249.61223485936807
s(I39
I1
tp334
F292.6616354143632
s(I208
I3
tp335
F291.56769492222026
s(I193
I1
tp336
F306.9097701784331
s(I272
I1
tp337
F316.71192653640793
s(I264
I1
tp338
F288.61847193391293
s(I51
I2
tp339
F302.72408992851774
s(I4
I3
tp340
F312.85548737624316
s(I5
I2
tp341
F100.59318730274998
s(I103
I2
tp342
F289.95877330535177
s(I214
I3
tp343
F290.00864090610196
s(I301
I1
tp344
F286.74486453162694
s(I40
I3
tp345
F292.9576764708191
s(I41
I2
tp346
F319.56383976017923
s(I250
I3
tp347
F289.91305153229774
s(I92
I3
tp348
F298.76511856371087
s(I93
I2
tp349
F293.8439293678238
s(I46
I3
tp350
F316.8582718449512
s(I192
I1
tp351
F288.0878125260971
s(I295
I3
tp352
F304.46858857940583
s(I82
I3
tp353
F298.93663746922084
s(I156
I2
tp354
F313.8854403817378
s(I244
I1
tp355
F296.3688055733252
s(I284
I2
tp356
F245.4238529856461
s(I285
I3
tp357
F304.0983405389023
s(I1
I1
tp358
F322.0444003523529
s(I76
I1
tp359
F298.5938996456857
s(I274
I2
tp360
F288.8444778984234
s(I53
I1
tp361
F300.8663750954654
s(I215
I3
tp362
F317.34059944641257
s(I302
I1
tp363
F403.29108599491474
s(I89
I1
tp364
F312.2267032685451
s(I279
I1
tp365
F289.2498062734063
s(I251
I3
tp366
F286.5328899645069
s(I204
I2
tp367
F327.5444442963739
s(I291
I2
tp368
F303.8497858505925
s(I205
I3
tp369
F289.41765093996094
s(I47
I3
tp370
F293.0782762065825
s(I240
I2
tp371
F312.2692402325124
s(I280
I3
tp372
F324.8097988514656
s(I241
I3
tp373
F287.0242480524845
s(I83
I3
tp374
F303.2904724410678
s(I194
I2
tp375
F286.83263960591313
s(I281
I2
tp376
F288.52317574132127
s(I36
I2
tp377
F303.8355862996266
s(I37
I3
tp378
F293.27819284295913
s(I222
I1
tp379
F292.60385772875793
s(I246
I2
tp380
F298.73945164125047
s(I72
I2
tp381
F306.57974871638646
s(I199
I1
tp382
F282.79098948058555
s(I286
I3
tp383
F319.2531963929702
s(I211
I2
tp384
F295.1896213046117
s(I235
I1
tp385
F293.8136640420651
s(I54
I1
tp386
F299.95342380544616
s(I78
I2
tp387
F276.4478807131196
s(I7
I2
tp388
F147.40025585559832
s(I200
I3
tp389
F287.2785006389017
s(I90
I1
tp390
F298.8100099541643
s(I201
I2
tp391
F293.1627328220602
s(I43
I2
tp392
F291.8193174878197
s(I67
I1
tp393
F295.10720801236744
s(I154
I3
tp394
F296.30695113410553
s(I252
I3
tp395
F290.37066519205496
s(I253
I2
tp396
F293.70189943103327
s(I95
I2
tp397
F293.1736650188566
s(I119
I1
tp398
F309.36958472311346
s(I206
I3
tp399
F310.24553571746395
s(I293
I1
tp400
F408.2807280044904
s(I242
I3
tp401
F308.89861651343443
s(I84
I3
tp402
F294.4968997111177
s(I38
I3
tp403
F298.8273485174897
s(I120
I3
tp404
F301.9830431507361
s(I292
I2
tp405
F316.76505163144986
s(I184
I1
tp406
F284.3237703509211
s(I237
I2
tp407
F290.63638401835755
s(I236
I1
tp408
F299.5266885580991
s(I276
I2
tp409
F289.68910642720067
s(I277
I3
tp410
F286.54149789703956
s(I16
I1
tp411
F275.3117346773354
s(I249
I1
tp412
F286.99017185380023
s(I68
I1
tp413
F303.9481439933369
s(I155
I3
tp414
F298.46685648278697
s(I266
I2
tp415
F288.1137992815254
s(I45
I1
tp416
F301.05496515080955
s(I104
I1
tp417
F295.2599568541565
s(I207
I3
tp418
F289.8889328384492
s(I294
I1
tp419
F280.39448144706597
s(I144
I2
tp420
F298.2912050029602
s(I271
I1
tp421
F291.89626108788343
s(I243
I3
tp422
F296.17729733269886
s(I287
I3
tp423
F265.2013744092559
s(I196
I2
tp424
F315.45840520513957
s(I283
I2
tp425
F241.64427276179825
s(I307
I1
tp426
F215.1015826013132
s(I197
I3
tp427
F284.0745068542118
s(I39
I3
tp428
F295.60185711912953
s(I232
I2
tp429
F285.49956345251036
s(I272
I3
tp430
F283.72910548924204
s(I233
I3
tp431
F287.54404508240356
s(I186
I2
tp432
F285.6853172303464
s(I273
I2
tp433
F287.9200731879481
s(I214
I1
tp434
F299.11524403203396
s(I238
I2
tp435
F286.60151973799617
s(I64
I2
tp436
F298.2414835053829
s(I167
I2
tp437
F309.98639841336126
s(I191
I1
tp438
F289.07155208694115
s(I278
I3
tp439
F290.8650103276103
s(I65
I3
tp440
F308.8742098781936
s(I250
I1
tp441
F296.94408783873314
s(I18
I2
tp442
F283.7448299939794
s(I116
I2
tp443
F302.2393936764837
s(I203
I2
tp444
F284.7008320846521
s(I227
I1
tp445
F297.36094623094084
s(I156
I3
tp446
F310.7059340544523
s(I117
I3
tp447
F291.63610659747707
s(I46
I1
tp448
F295.58802964435216
s(I70
I2
tp449
F291.2982087859474
s(I255
I2
tp450
F290.2241254713205
s(I23
I1
tp451
F222.6421867104718
s(I192
I3
tp452
F283.74868727041246
s(I82
I1
tp453
F323.18129811797286
s(I106
I2
tp454
F300.255261926786
s(I256
I1
tp455
F282.18264224928765
s(I59
I1
tp456
F309.6840930381959
s(I244
I3
tp457
F306.56749803431796
s(I132
I1
tp458
F297.74404158540943
s(I245
I2
tp459
F309.01477605222374
s(I198
I3
tp460
F295.99923390027095
s(I285
I1
tp461
F284.3181698745408
s(I213
I1
tp462
F291.6302161193281
s(I284
I1
tp463
F252.32732951056357
s(I234
I3
tp464
F287.47846160926554
s(I76
I3
tp465
F300.9311543295591
s(I77
I2
tp466
F304.7711925928264
s(I279
I3
tp467
F287.13012251623707
s(I66
I3
tp468
F304.2287482644199
s(I225
I2
tp469
F311.7278501129567
s(I228
I1
tp470
F287.33138600701324
s(I118
I3
tp471
F293.8111236398615
s(I268
I2
tp472
F299.10835579759424
s(I269
I3
tp473
F290.8465638142218
s(I8
I1
tp474
F54.40036547881296
s(I304
I2
tp475
F279.56267545525395
s(I105
I2
tp476
F305.71986509114106
s(I305
I3
tp477
F326.1706186070531
s(I60
I1
tp478
F300.658965969839
s(I258
I2
tp479
F296.6006214768697
s(I37
I1
tp480
F274.16753400951995
s(I96
I1
tp481
F301.6819762370193
s(I199
I3
tp482
F281.240748377463
s(I286
I1
tp483
F267.6457400096067
s(I263
I1
tp484
F286.0754300695065
s(I235
I3
tp485
F287.245872380887
s(I188
I2
tp486
F324.0835626042507
s(I275
I2
tp487
F316.17376282847476
s(I299
I1
tp488
F269.21525483389837
s(I189
I3
tp489
F283.0366797935105
s(I142
I2
tp490
F298.1217776637879
s(I224
I2
tp491
F285.18620641008295
s(I264
I3
tp492
F311.8733041984715
s(I225
I3
tp493
F290.7761711345678
s(I67
I3
tp494
F294.1314351116627
s(I154
I1
tp495
F294.7328136169889
s(I265
I2
tp496
F288.9683510286086
s(I20
I2
tp497
F287.9581714536937
s(I131
I1
tp498
F303.092045990714
s(I21
I3
tp499
F287.6987365374568
s(I119
I3
tp500
F296.6368873336996
s(I206
I1
tp501
F298.92661550437015
s(I230
I2
tp502
F289.4208275611112
s(I56
I2
tp503
F291.84763942969437
s(I183
I1
tp504
F286.492876636266
s(I270
I3
tp505
F301.1967296194217
s(I57
I3
tp506
F291.68178987538363
s(I242
I1
tp507
F290.66606278417464
s(I10
I2
tp508
F101.92985589022372
s(I108
I2
tp509
F299.28892835623054
s(I195
I2
tp510
F297.17929559549043
s(I219
I1
tp511
F297.83229137907466
s(I306
I3
tp512
F292.22493427882796
s(I38
I1
tp513
F298.5331707947011
s(I247
I2
tp514
F302.462232434855
s(I15
I1
tp515
F244.91975621633617
s(I184
I3
tp516
F296.39946718382936
s(I197
I1
tp517
F296.21547075654973
s(I185
I2
tp518
F293.36149653897775
s(I205
I2
tp519
F288.97670746490314
s(I51
I1
tp520
F300.526331041523
s(I236
I3
tp521
F307.55799938586347
s(I300
I1
tp522
F466.8803621081626
s(I79
I2
tp523
F309.63390227601917
s(I103
I1
tp524
F303.9976472656072
s(I190
I3
tp525
F280.070214161764
s(I277
I1
tp526
F286.5205141171158
s(I16
I3
tp527
F298.64980070510256
s(I17
I2
tp528
F206.97374304231326
s(I115
I2
tp529
F297.1588557425476
s(I226
I3
tp530
F289.7029351824331
s(I68
I3
tp531
F302.4515685806718
s(I69
I2
tp532
F301.9230583533217
s(I22
I3
tp533
F281.60061610177723
s(I104
I3
tp534
F294.3909126618906
s(I168
I1
tp535
F295.8168317799079
s(I271
I3
tp536
F296.9907574205505
s(I58
I3
tp537
F288.22392191283575
s(I81
I1
tp538
F299.70453418455185
s(I220
I1
tp539
F287.5769645074017
s(I307
I3
tp540
F312.5467850992484
s(I260
I2
tp541
F277.3340749680772
s(I261
I3
tp542
F283.0843989323473
s(I241
I2
tp543
F300.4616612388818
s(I233
I1
tp544
F290.64757487609813
s(I297
I3
tp545
F307.9240323123897
s(I52
I1
tp546
F291.6165944708719
s(I191
I3
tp547
F299.80388506807355
s(I278
I1
tp548
F292.69215084801033
s(I302
I2
tp549
F270.46130332669543
s(I128
I2
tp550
F297.0954993963295
s(I129
I3
tp551
F289.2960323108439
s(I227
I3
tp552
F302.9508204219647
s(I180
I2
tp553
F286.8464785833802
s(I267
I2
tp554
F295.18963066895435
s(I291
I1
tp555
F275.14948936501435
s(I23
I3
tp556
F290.828279490924
s(I216
I2
tp557
F288.1980196602582
s(I256
I3
tp558
F284.98233085631625
s(I217
I3
tp559
F277.69681419183087
s(I59
I3
tp560
F317.211166399875
s(I257
I2
tp561
F289.1513220344458
s(I12
I2
tp562
F317.26924845229684
s(I13
I3
tp563
F300.3693366348151
s(I198
I1
tp564
F289.141336500241
s(I222
I2
tp565
F308.80019839476506
s(I48
I2
tp566
F301.7841361369732
s(I262
I3
tp567
F291.2547128046193
s(I234
I1
tp568
F303.622687489467
s(I187
I2
tp569
F305.06138931324017
s(I211
I1
tp570
F302.62587148464115
s(I298
I3
tp571
F289.0818538904834
s(I54
I2
tp572
F295.9257044433202
s(I141
I2
tp573
F298.99436854629204
s(I239
I2
tp574
F306.2784943106534
s(I7
I1
tp575
F298.4037947590022
s(I66
I1
tp576
F304.16739183866304
s(I90
I2
tp577
F298.07745341360004
s(I19
I2
tp578
F284.8101898070784
s(I43
I1
tp579
F292.3556286512668
s(I130
I3
tp580
F296.6893534940634
s(I228
I3
tp581
F329.39475529545547
s(I118
I1
tp582
F293.62257663006784
s(I292
I1
tp583
F273.28388153316786
s(I71
I2
tp584
F297.83710953025945
s(I95
I1
tp585
F293.7654772503
s(I182
I3
tp586
F295.3881259966469
s(I269
I1
tp587
F288.0768690667813
s(I8
I3
tp588
F302.663989959756
s(I9
I2
tp589
F317.38598920852644
s(I107
I2
tp590
F310.67984887767716
s(I218
I3
tp591
F313.6505226687941
s(I305
I1
tp592
F494.32313239949383
s(I60
I3
tp593
F304.722148835487
s(I65
I1
tp594
F295.7504916430846
s(I14
I3
tp595
F274.53314210364834
s(I96
I3
tp596
F300.7997776541963
s(I280
I2
tp597
F299.6485333159339
s(I263
I3
tp598
F299.90394055914896
s(I50
I3
tp599
F300.14164122816044
s(I212
I1
tp600
F296.1874477325366
s(I299
I3
tp601
F276.15928263343733
s(I102
I3
tp602
F300.86067916043015
s(I189
I1
tp603
F292.05913132808746
s(I248
I1
tp604
F291.07059557053446
s(I225
I1
tp605
F291.39822213083414
s(I289
I3
tp606
F251.82044424152136
s(I44
I1
tp607
F299.81958895615986
s(I131
I3
tp608
F300.43857755508316
s(I21
I1
tp609
F239.99386634320473
s(I80
I1
tp610
F300.5634405749915
s(I183
I3
tp611
F287.5305498309652
s(I270
I1
tp612
F286.1631120558593
s(I294
I2
tp613
F267.3788112595664
s(I57
I1
tp614
F302.59910730245394
s(I117
I1
tp615
F318.5967388812378
s(I219
I3
tp616
F288.8184091172117
s(I306
I1
tp617
F381.43565724241034
s(I259
I2
tp618
F300.14471733762184
s(I283
I1
tp619
F255.83923639747627
s(I15
I3
tp620
F311.6300875676631
s(I208
I2
tp621
F322.4167385417525
s(I209
I3
tp622
F291.01680667234103
s(I51
I3
tp623
F302.32417560365144
s(I4
I2
tp624
F56.14924194878665
s(I300
I3
tp625
F290.9836533735802
s(I5
I3
tp626
F130.1494730250314
s(I103
I3
tp627
F300.8130499410496
s(I190
I1
tp628
F297.8863728259025
s(I214
I2
tp629
F283.296095358269
s(I301
I2
tp630
F279.91396623539924
s(I40
I2
tp631
F296.8579037069647
s(I143
I2
tp632
F306.5069674738279
s(I167
I1
tp633
F300.34851937506176
s(I41
I3
tp634
F301.06586824088
s(I226
I1
tp635
F322.4020226970959
s(I250
I2
tp636
F290.0218941787247
s(I92
I2
tp637
F294.2308604460446
s(I203
I1
tp638
F284.31272554922356
s(I290
I3
tp639
F272.26862938182126
s(I132
I3
tp640
F296.3813698701384
s(I93
I3
tp641
F302.84087720234834
s(I22
I1
tp642
F118.491810999254
s(I46
I2
tp643
F294.66656858069575
s(I231
I2
tp644
F311.34426005744234
s(I255
I1
tp645
F282.23313778891657
s(I168
I3
tp646
F300.7351071262985
s(I58
I1
tp647
F312.01559800838686
s(I82
I2
tp648
F298.3001423925022
s(I11
I2
tp649
F286.91398996390643
s(I220
I3
tp650
F288.69998430089163
s(I221
I2
tp651
F290.7093180347156
s(I63
I2
tp652
F297.07371483236386
s(I261
I1
tp653
F283.9275617633623
s(I264
I2
tp654
F288.63648546049257
s(I1
I2
tp655
F125.66808699406295
s(I209
I2
tp656
F284.97077426269635
s(I210
I3
tp657
F297.52507091569225
s(I297
I1
tp658
F470.5853679813527
s(I52
I3
tp659
F330.0762192680469
s(I53
I2
tp660
F300.53580623522515
s(I6
I3
tp661
F60.736014974131145
s(I89
I2
tp662
F288.8994452618249
s(I42
I3
tp663
F314.33754472718
s(I129
I1
tp664
F294.8599980690864
s(I204
I1
tp665
F286.346508127282
s(I291
I3
tp666
F295.4339743826202
s(I94
I3
tp667
F295.5544844005382
s(I240
I1
tp668
F297.6543097826433
s(I217
I1
tp669
F309.11299586405863
s(I281
I3
tp670
F290.7280777909059
s(I36
I1
tp671
F292.8834038812801
s(I13
I1
tp672
F228.65593888588947
s(I72
I1
tp673
F314.5832421662993
s(I262
I1
tp674
F295.9319101457868
s(I286
I2
tp675
F275.4874752560671
s(I211
I3
tp676
F287.3511896159247
s(I298
I1
tp677
F303.47130146107014
s(I275
I1
tp678
F292.8852319031636
s.