(dp0
(I7
I3
tp1
F303.0426469211517
s(I200
I2
tp2
F303.54199242776605
s(I303
I2
tp3
F282.83710818934145
s(I201
I3
tp4
F301.025010132221
s(I43
I3
tp5
F287.5307619895643
s(I130
I1
tp6
F318.98735658633666
s(I154
I2
tp7
F284.46534472683805
s(I252
I2
tp8
F308.87882964580035
s(I292
I3
tp9
F303.636700489068
s(I253
I3
tp10
F296.29297358976544
s(I95
I3
tp11
F320.2291350550563
s(I182
I1
tp12
F204.21099591045027
s(I206
I2
tp13
F310.0152208020233
s(I293
I2
tp14
F352.1086443541245
s(I218
I1
tp15
F310.2762333482694
s(I242
I2
tp16
F308.1097720928049
s(I84
I2
tp17
F273.56114769278975
s(I195
I1
tp18
F313.1008022579043
s(I282
I3
tp19
F319.09867240143564
s(I14
I1
tp20
F305.42370929054016
s(I38
I2
tp21
F218.99607031801568
s(I120
I2
tp22
F327.944368938429
s(I223
I2
tp23
F310.24413389314014
s(I247
I1
tp24
F296.29331250903
s(I50
I1
tp25
F305.8994411430566
s(I193
I2
tp26
F304.03555654156486
s(I3
I2
tp27
F25.0244889746352
s(I212
I3
tp28
F296.6844567750745
s(I102
I1
tp29
F229.48658200320887
s(I213
I2
tp30
F292.3035570841234
s(I55
I2
tp31
F272.26326699643005
s(I79
I1
tp32
F190.93231681830463
s(I248
I3
tp33
F292.4065542100838
s(I249
I2
tp34
F303.37569321378845
s(I91
I2
tp35
F328.76536186794976
s(I115
I1
tp36
F308.01014004979953
s(I202
I3
tp37
F302.4279421697433
s(I289
I1
tp38
F269.7154589870297
s(I44
I3
tp39
F288.635818433545
s(I45
I2
tp40
F313.1194252281473
s(I254
I3
tp41
F333.71647095201246
s(I80
I3
tp42
F242.6417385521148
s(I81
I2
tp43
F332.08623743115504
s(I93
I2
tp44
F277.6881313476721
s(I196
I1
tp45
F301.2673532528768
s(I283
I3
tp46
F284.823468385706
s(I237
I1
tp47
F297.9246204348397
s(I232
I1
tp48
F289.9318843610322
s(I209
I1
tp49
F305.3512341013886
s(I273
I3
tp50
F300.9211363570254
s(I5
I1
tp51
I-1
s(I64
I1
tp52
F232.95529235550845
s(I167
I3
tp53
F262.720934019815
s(I278
I2
tp54
F307.0722988779819
s(I41
I1
tp55
F191.34765875291487
s(I116
I1
tp56
F234.52767233636038
s(I203
I3
tp57
F301.1763023604408
s(I290
I1
tp58
F298.9285186179564
s(I156
I2
tp59
F328.5775980885932
s(I267
I1
tp60
F325.47906238384206
s(I255
I3
tp61
F324.3324640583854
s(I192
I2
tp62
F303.2938350619231
s(I295
I2
tp63
F300.6866750376313
s(I193
I3
tp64
F308.8304825792496
s(I244
I2
tp65
F345.1199280787754
s(I284
I3
tp66
F298.5188554960342
s(I245
I3
tp67
F294.92856707874074
s(I198
I2
tp68
F307.844465653275
s(I285
I2
tp69
F302.19517599269403
s(I210
I1
tp70
F343.8245356647096
s(I234
I2
tp71
F306.8749835916798
s(I76
I2
tp72
F244.9521168017746
s(I187
I1
tp73
F328.5359732019787
s(I274
I3
tp74
F321.7785637652483
s(I77
I3
tp75
F323.85891571229223
s(I6
I1
tp76
F301.52882750928325
s(I215
I2
tp77
F321.0080458172264
s(I239
I1
tp78
F332.32935096360995
s(I42
I1
tp79
F183.12530064093178
s(I66
I2
tp80
F232.3376724733624
s(I251
I2
tp81
F305.1578849579461
s(I19
I1
tp82
F317.16901414659776
s(I204
I3
tp83
F326.3585311165019
s(I94
I1
tp84
F178.4087818908854
s(I118
I2
tp85
F230.58591263263196
s(I268
I1
tp86
F294.6143009924228
s(I47
I2
tp87
F251.0760108558478
s(I71
I1
tp88
F234.06500590337222
s(I240
I3
tp89
F326.36483812430043
s(I304
I1
tp90
F243.2518006003295
s(I83
I2
tp91
F324.9966119957272
s(I107
I1
tp92
F235.1030076056864
s(I194
I3
tp93
F296.07810761227074
s(I281
I1
tp94
F307.80202564135243
s(I36
I3
tp95
F318.4423421061889
s(I132
I2
tp96
F316.43690367115346
s(I37
I2
tp97
F306.85877048672984
s(I246
I3
tp98
F302.50306411595534
s(I72
I3
tp99
F320.71320963418583
s(I221
I1
tp100
F297.764598727987
s(I292
I1
tp101
F380.91237523807433
s(I188
I1
tp102
F320.0645179119974
s(I275
I3
tp103
F312.9132663254063
s(I78
I3
tp104
F328.32887511661886
s(I224
I1
tp105
F331.59494434949573
s(I201
I1
tp106
F308.6571954377733
s(I265
I3
tp107
F289.11110680581027
s(I20
I1
tp108
F98.67958041570948
s(I253
I1
tp109
F310.9792552652734
s(I56
I1
tp110
F247.75831832721494
s(I270
I2
tp111
F296.9800995524099
s(I168
I2
tp112
F276.0875711172066
s(I108
I1
tp113
F330.29609859135405
s(I195
I3
tp114
F333.49576949316605
s(I282
I1
tp115
F299.3268184676517
s(I306
I2
tp116
F306.3091339973318
s(I259
I1
tp117
F290.02615013896735
s(I247
I3
tp118
F316.5236835804737
s(I184
I2
tp119
F301.1728803656487
s(I287
I2
tp120
F302.4939388097432
s(I185
I3
tp121
F314.5359454223421
s(I236
I2
tp122
F301.63066644776734
s(I276
I3
tp123
F311.9671153712683
s(I237
I3
tp124
F304.11685063409044
s(I79
I3
tp125
F273.1033576541754
s(I190
I2
tp126
F315.92724081249656
s(I277
I2
tp127
F300.6346055470744
s(I16
I2
tp128
F155.9302441242894
s(I143
I1
tp129
F253.23424920146965
s(I17
I3
tp130
F189.19917699315957
s(I115
I3
tp131
F287.3381683349141
s(I202
I1
tp132
F297.8983450508316
s(I226
I2
tp133
F309.7726349602238
s(I68
I2
tp134
F315.5933266406973
s(I155
I2
tp135
F281.6708662382862
s(I266
I3
tp136
F295.71441587035935
s(I69
I3
tp137
F275.51795002157985
s(I254
I1
tp138
F304.27687279624274
s(I22
I2
tp139
F192.06458393513205
s(I104
I2
tp140
F248.72047412067892
s(I207
I2
tp141
F303.788810017514
s(I231
I1
tp142
F304.6306578513375
s(I144
I3
tp143
F300.36328929415384
s(I105
I3
tp144
F182.73958582782402
s(I58
I2
tp145
F261.5361580580989
s(I243
I2
tp146
F319.14558078004677
s(I11
I1
tp147
F51.32648895673104
s(I196
I3
tp148
F330.81960221461503
s(I197
I2
tp149
F310.92169610303927
s(I39
I2
tp150
F312.8896724211033
s(I63
I1
tp151
F227.59392254369263
s(I232
I3
tp152
F315.0680572504224
s(I205
I1
tp153
F329.0863263076782
s(I233
I2
tp154
F304.2649093940128
s(I276
I1
tp155
F300.1670817839868
s(I186
I3
tp156
F296.155370306639
s(I273
I1
tp157
F341.646512367946
s(I238
I3
tp158
F295.60248439288
s(I64
I3
tp159
F312.5368491978027
s(I128
I1
tp160
F324.38849500877774
s(I18
I3
tp161
F314.13154625555677
s(I116
I3
tp162
F280.95144309325997
s(I180
I1
tp163
F300.95133290472955
s(I267
I3
tp164
F303.62127452578085
s(I70
I3
tp165
F309.8240404903382
s(I216
I1
tp166
F302.92220785064825
s(I106
I3
tp167
F245.5387839423063
s(I256
I2
tp168
F321.8110439919545
s(I257
I3
tp169
F297.5075709440276
s(I12
I1
tp170
F323.06720787552104
s(I245
I1
tp171
F324.35412487871065
s(I304
I2
tp172
F299.9882818839241
s(I48
I1
tp173
F189.7540768533476
s(I262
I2
tp174
F312.61717740196633
s(I187
I3
tp175
F310.20305515634277
s(I274
I1
tp176
F300.88225610027797
s(I298
I2
tp177
F313.5239467979689
s(I77
I1
tp178
F245.37906874836204
s(I141
I3
tp179
F262.51156933721694
s(I239
I3
tp180
F312.2328131911766
s(I279
I2
tp181
F292.03280224780553
s(I303
I1
tp182
F219.8925035414182
s(I19
I3
tp183
F241.60356474394845
s(I130
I2
tp184
F270.976092945457
s(I228
I2
tp185
F307.8782868194263
s(I268
I3
tp186
F295.44875294134215
s(I229
I3
tp187
F298.18684113764755
s(I71
I3
tp188
F338.6525494323166
s(I182
I2
tp189
F307.7491103392573
s(I269
I2
tp190
F304.77178519400246
s(I8
I2
tp191
F54.77884235453277
s(I304
I3
tp192
F264.1034011716245
s(I9
I3
tp193
F105.91310069490252
s(I107
I3
tp194
F259.5507711666223
s(I194
I1
tp195
F324.19944201957867
s(I218
I2
tp196
F300.40730495554567
s(I305
I2
tp197
F302.37337907397244
s(I60
I2
tp198
F278.51702431554304
s(I258
I3
tp199
F299.6249735951479
s(I246
I1
tp200
F313.1170411031379
s(I14
I2
tp201
F238.43488685698097
s(I96
I2
tp202
F250.0612699338473
s(I199
I2
tp203
F301.3044474747623
s(I223
I1
tp204
F323.8487003761467
s(I50
I2
tp205
F309.70898388973103
s(I260
I1
tp206
F304.13029603347434
s(I235
I2
tp207
F318.9747402102346
s(I3
I1
tp208
F311.86722549452105
s(I188
I3
tp209
F297.9758142386874
s(I78
I1
tp210
F210.22324449076396
s(I102
I2
tp211
F249.18001379402784
s(I189
I2
tp212
F312.3532244349216
s(I55
I1
tp213
F223.26903315602004
s(I142
I3
tp214
F249.61395287458342
s(I224
I3
tp215
F309.01616345991965
s(I288
I1
tp216
F292.7084627600372
s(I67
I2
tp217
F234.61561728067034
s(I91
I1
tp218
F172.75658554062068
s(I265
I1
tp219
F325.51599301086407
s(I20
I3
tp220
F321.19549237087034
s(I21
I2
tp221
F185.32292933390733
s(I119
I2
tp222
F329.63921246649795
s(I230
I3
tp223
F305.4285044187622
s(I237
I2
tp224
F300.1587650166354
s(I56
I3
tp225
F274.9062645946953
s(I57
I2
tp226
F318.6682676998611
s(I10
I3
tp227
I-1
s(I108
I3
tp228
F291.54983711984414
s(I144
I1
tp229
F245.77692984374553
s(I259
I3
tp230
F293.24271534602246
s(I288
I2
tp231
F334.31672818311233
s(I208
I1
tp232
F310.1792583868772
s(I185
I1
tp233
F306.00381641859457
s(I4
I1
tp234
F35.206441535380655
s(I300
I2
tp235
F300.3990810008816
s(I301
I3
tp236
F301.56980801685614
s(I40
I1
tp237
F258.0254440119718
s(I143
I3
tp238
F227.01242332586622
s(I17
I1
tp239
F324.4648953730647
s(I92
I1
tp240
F255.59799119181264
s(I266
I1
tp241
F320.3062590835
s(I290
I2
tp242
F318.64619010508693
s(I69
I1
tp243
F123.20048515824008
s(I231
I3
tp244
F305.73290023424227
s(I105
I1
tp245
F221.9633941305966
s(I271
I2
tp246
F290.60784604785675
s(I295
I1
tp247
F279.4981855024183
s(I11
I3
tp248
F232.14938351720954
s(I220
I2
tp249
F306.3256487057914
s(I307
I2
tp250
F274.09236671122136
s(I260
I3
tp251
F309.8242387974809
s(I221
I3
tp252
F312.36170797748684
s(I63
I3
tp253
F313.77964117158854
s(I261
I2
tp254
F307.07829640883006
s(I1
I3
tp255
F65.27699559064897
s(I186
I1
tp256
F334.8418785047084
s(I210
I2
tp257
F297.00349015333114
s(I297
I2
tp258
F303.8640879845063
s(I52
I2
tp259
F291.56963465674323
s(I53
I3
tp260
F248.93441707607334
s(I238
I1
tp261
F296.8669457098323
s(I6
I2
tp262
F94.48636933218428
s(I191
I2
tp263
F306.32428335395696
s(I215
I1
tp264
F297.8071069476522
s(I302
I3
tp265
F279.391227366324
s(I128
I3
tp266
F209.7793649018521
s(I89
I3
tp267
F318.904894654687
s(I18
I1
tp268
F80.70578555977724
s(I42
I2
tp269
F316.9153419454223
s(I129
I2
tp270
F329.6797877025521
s(I227
I2
tp271
F312.8449643676886
s(I251
I1
tp272
F300.4262386393881
s(I180
I3
tp273
F296.1013173875468
s(I70
I1
tp274
F238.9355601832001
s(I94
I2
tp275
F344.52372800863117
s(I23
I2
tp276
F148.00094709168823
s(I47
I1
tp277
F304.84048371971073
s(I216
I3
tp278
F329.8133352848171
s(I106
I1
tp279
F236.31420394456563
s(I280
I1
tp280
F297.43800859120495
s(I59
I2
tp281
F311.93416394554055
s(I83
I1
tp282
F183.19637342678
s(I257
I1
tp283
F319.57043864362333
s(I12
I3
tp284
F242.33470269111075
s(I65
I2
tp285
F260.21821823034657
s(I13
I2
tp286
F182.459713349134
s(I222
I3
tp287
F319.9933037568235
s(I48
I3
tp288
F263.6492789114495
s(I272
I2
tp289
F302.23789098836863
s(I217
I2
tp290
F302.8230429312642
s(I54
I3
tp291
F253.29355595577454
s(I141
I1
tp292
F222.73547388178469
s(I200
I1
tp293
F291.11123596241475
s(I303
I3
tp294
F298.3725375770109
s(I90
I3
tp295
F327.7631448848009
s(I252
I1
tp296
F313.08686623078313
s(I229
I1
tp297
F304.9240841862263
s(I293
I3
tp298
F292.0518647863335
s(I9
I1
tp299
I-1
s(I117
I2
tp300
F259.1587646518664
s(I84
I1
tp301
F340.7483888385526
s(I258
I1
tp302
F303.4308732959986
s(I282
I2
tp303
F306.92307453295876
s(I120
I1
tp304
F225.90451454567767
s(I223
I3
tp305
F299.0239880955955
s(I263
I2
tp306
F309.68223367370325
s(I287
I1
tp307
F303.1537431391343
s(I3
I3
tp308
F85.23395082014103
s(I212
I2
tp309
F311.29642890129765
s(I299
I2
tp310
F302.9574634786007
s(I213
I3
tp311
F304.8738301950439
s(I55
I3
tp312
F334.6996231613453
s(I142
I1
tp313
F173.43543770163097
s(I248
I2
tp314
F304.9668264396822
s(I288
I3
tp315
F290.06457785170716
s(I249
I3
tp316
F297.5249486746308
s(I91
I3
tp317
F263.77485923988957
s(I202
I2
tp318
F331.13637469722823
s(I289
I2
tp319
F251.84517243004615
s(I44
I2
tp320
F311.4790422594797
s(I131
I2
tp321
F336.73585998787155
s(I155
I1
tp322
F205.0131305019694
s(I45
I3
tp323
F216.33453253126885
s(I230
I1
tp324
F320.8816174962552
s(I254
I2
tp325
F309.30321010200527
s(I80
I2
tp326
F320.0880491874773
s(I183
I2
tp327
F293.6337335600014
s(I207
I1
tp328
F326.72450756798213
s(I294
I3
tp329
F295.50087357320626
s(I81
I3
tp330
F283.75481130384867
s(I10
I1
tp331
I-1
s(I219
I2
tp332
F307.7086480781554
s(I243
I1
tp333
F302.1823876909374
s(I15
I2
tp334
F175.98759035717367
s(I39
I1
tp335
F238.78971838705158
s(I208
I3
tp336
F310.29654561367744
s(I193
I1
tp337
F302.43863497810725
s(I209
I2
tp338
F308.6067912266302
s(I264
I1
tp339
F306.97990369688546
s(I51
I2
tp340
F211.90852271899638
s(I4
I3
tp341
F27.71009695202835
s(I5
I2
tp342
F309.15531224740187
s(I103
I2
tp343
F268.60556071611853
s(I214
I3
tp344
F313.24428715254805
s(I301
I1
tp345
F275.81029483079215
s(I40
I3
tp346
F322.434138271535
s(I41
I2
tp347
F255.72293151761255
s(I250
I3
tp348
F307.39401092635137
s(I92
I3
tp349
F323.5410818478817
s(I156
I1
tp350
F268.0489982846342
s(I46
I3
tp351
F309.4479457269851
s(I192
I1
tp352
F324.2141709925344
s(I295
I3
tp353
F300.79228688888264
s(I82
I3
tp354
F334.24046520378783
s(I93
I1
tp355
F213.55082735735388
s(I244
I1
tp356
F300.01524042722957
s(I284
I2
tp357
F315.22067029383476
s(I285
I3
tp358
F314.83584813340144
s(I1
I1
tp359
F27.543092346361046
s(I76
I1
tp360
F210.85356861072057
s(I274
I2
tp361
F296.469995489655
s(I53
I1
tp362
F334.7503704223778
s(I215
I3
tp363
F309.80889157251994
s(I302
I1
tp364
F293.62628128886405
s(I89
I1
tp365
F160.28912814605243
s(I279
I1
tp366
F294.82204696803973
s(I251
I3
tp367
F343.7124538153707
s(I204
I2
tp368
F310.7435623170627
s(I291
I2
tp369
F304.45997649030306
s(I205
I3
tp370
F298.82438809589064
s(I47
I3
tp371
F299.3676031186804
s(I240
I2
tp372
F294.5837002009261
s(I280
I3
tp373
F298.1663524577271
s(I241
I3
tp374
F302.931475262503
s(I83
I3
tp375
F283.7313738518942
s(I194
I2
tp376
F297.9479612070408
s(I281
I2
tp377
F309.5060400791498
s(I36
I2
tp378
F265.5659871523193
s(I37
I3
tp379
F283.87202956095064
s(I222
I1
tp380
F302.4132302437781
s(I246
I2
tp381
F305.041634473881
s(I72
I2
tp382
F274.20808263529875
s(I199
I1
tp383
F302.46255092501923
s(I286
I3
tp384
F325.06756635328617
s(I211
I2
tp385
F298.6171010977293
s(I235
I1
tp386
F318.04512146347207
s(I54
I1
tp387
F248.01372906250072
s(I78
I2
tp388
F250.3245233720315
s(I7
I2
tp389
F35.743275700363306
s(I200
I3
tp390
F309.37993676934923
s(I90
I1
tp391
F268.8818972334912
s(I201
I2
tp392
F326.40111152976027
s(I43
I2
tp393
F309.87955886304263
s(I67
I1
tp394
F208.6375816316324
s(I154
I3
tp395
F327.51815463011235
s(I252
I3
tp396
F316.90280633102424
s(I253
I2
tp397
F298.33251201391636
s(I95
I2
tp398
F245.43419185429852
s(I119
I1
tp399
F232.35726384019458
s(I206
I3
tp400
F297.36918222455324
s(I293
I1
tp401
F288.29372020128307
s(I242
I3
tp402
F299.98378012186015
s(I84
I3
tp403
F279.3872858955423
s(I38
I3
tp404
F267.983141947725
s(I120
I3
tp405
F267.4164326063419
s(I292
I2
tp406
F357.8515570836773
s(I184
I1
tp407
F300.5754179383556
s(I287
I3
tp408
F321.1568494366852
s(I236
I1
tp409
F319.8750377477262
s(I213
I1
tp410
F304.53550915895437
s(I277
I3
tp411
F328.2155097801823
s(I16
I1
tp412
F138.86713024420715
s(I249
I1
tp413
F297.21876826040096
s(I68
I1
tp414
F213.92869173116134
s(I155
I3
tp415
F325.6366640195114
s(I266
I2
tp416
F309.4690062255501
s(I45
I1
tp417
F263.6641128535612
s(I104
I1
tp418
F176.94968796881813
s(I207
I3
tp419
F299.273083259568
s(I294
I1
tp420
F308.4543876884486
s(I144
I2
tp421
F327.3111663720067
s(I271
I1
tp422
F318.5890955358991
s(I243
I3
tp423
F313.673748642209
s(I196
I2
tp424
F304.71667309254326
s(I283
I2
tp425
F298.235532880761
s(I307
I1
tp426
F296.69420202050344
s(I197
I3
tp427
F311.91026173612863
s(I39
I3
tp428
F267.52718518041
s(I232
I2
tp429
F286.15222782568003
s(I272
I3
tp430
F300.6706424758672
s(I233
I3
tp431
F299.889501012515
s(I186
I2
tp432
F306.92143362014804
s(I273
I2
tp433
F305.7801204348635
s(I214
I1
tp434
F311.40811466805627
s(I238
I2
tp435
F309.96740215584333
s(I64
I2
tp436
F293.56667911076084
s(I167
I2
tp437
F314.6538337060975
s(I191
I1
tp438
F303.40130624701976
s(I278
I3
tp439
F316.52886277147365
s(I65
I3
tp440
F324.38645880308246
s(I250
I1
tp441
F333.56820688021605
s(I18
I2
tp442
F143.50904362653594
s(I116
I2
tp443
F322.18224585862237
s(I203
I2
tp444
F303.9513301619454
s(I227
I1
tp445
F306.1857567168117
s(I156
I3
tp446
F270.9060326444421
s(I117
I3
tp447
F333.55960195457504
s(I46
I1
tp448
F264.8830345609119
s(I70
I2
tp449
F249.61296674028665
s(I255
I2
tp450
F301.0386934864668
s(I23
I1
tp451
F161.20717618624158
s(I192
I3
tp452
F309.11717784048085
s(I82
I1
tp453
F190.9468028404558
s(I106
I2
tp454
F311.862388664509
s(I256
I1
tp455
F300.3819968392273
s(I59
I1
tp456
F209.1994557914606
s(I244
I3
tp457
F301.55394250101483
s(I132
I1
tp458
F156.2627687030093
s(I245
I2
tp459
F300.5771081843776
s(I198
I3
tp460
F299.71310699309083
s(I285
I1
tp461
F303.6003931240223
s(I276
I2
tp462
F304.3048216888593
s(I284
I1
tp463
F234.07107482525257
s(I234
I3
tp464
F294.72446606765726
s(I76
I3
tp465
F338.2807394954721
s(I77
I2
tp466
F241.57034472189537
s(I279
I3
tp467
F328.27329475761263
s(I66
I3
tp468
F309.1080694661075
s(I225
I2
tp469
F307.7721347590997
s(I228
I1
tp470
F294.99471841185766
s(I118
I3
tp471
F316.76443816956083
s(I268
I2
tp472
F341.4533181159738
s(I269
I3
tp473
F312.16538513357887
s(I8
I1
tp474
F301.9237959250054
s(I241
I1
tp475
F299.6296680046503
s(I168
I1
tp476
F203.649681520588
s(I305
I3
tp477
F303.3095592096603
s(I60
I1
tp478
F246.31300388524932
s(I258
I2
tp479
F329.37740018717494
s(I37
I1
tp480
F321.565539328955
s(I96
I1
tp481
F266.56365145007663
s(I199
I3
tp482
F313.3836038094489
s(I286
I1
tp483
F292.64716825012624
s(I263
I1
tp484
F305.9368368614943
s(I235
I3
tp485
F310.5723621938931
s(I188
I2
tp486
F308.8275670287734
s(I275
I2
tp487
F314.47461911660787
s(I299
I1
tp488
F290.3331407798203
s(I189
I3
tp489
F312.9043898092968
s(I142
I2
tp490
F341.41638602269853
s(I224
I2
tp491
F316.94677664991883
s(I264
I3
tp492
F300.5441513730424
s(I225
I3
tp493
F306.95174184917806
s(I67
I3
tp494
F332.1108737748667
s(I154
I1
tp495
F249.69236337591767
s(I265
I2
tp496
F308.0820293959505
s(I20
I2
tp497
F192.0919963982813
s(I131
I1
tp498
F203.13286047077207
s(I21
I3
tp499
F197.09694699999574
s(I119
I3
tp500
F295.5994165604143
s(I206
I1
tp501
F297.836884196144
s(I230
I2
tp502
F307.43482337789385
s(I56
I2
tp503
F309.88241447065263
s(I183
I1
tp504
F318.37268901935255
s(I270
I3
tp505
F313.3312038706433
s(I57
I3
tp506
F273.03333996579966
s(I242
I1
tp507
F333.4061852463576
s(I10
I2
tp508
F301.31048051856084
s(I108
I2
tp509
F244.55392078097805
s(I195
I2
tp510
F299.4048639593873
s(I219
I1
tp511
F310.1728666495569
s(I306
I3
tp512
F306.29388956282475
s(I38
I1
tp513
F318.8944226071294
s(I247
I2
tp514
F302.79158099913354
s(I15
I1
tp515
F101.5441533423593
s(I184
I3
tp516
F332.94120230948033
s(I197
I1
tp517
F306.2024612163282
s(I185
I2
tp518
F304.35065886486785
s(I205
I2
tp519
F306.36897622537896
s(I51
I1
tp520
F326.2383427474662
s(I236
I3
tp521
F311.4489175400978
s(I300
I1
tp522
F295.7096719583408
s(I79
I2
tp523
F303.86199854599954
s(I103
I1
tp524
F266.4641178572866
s(I190
I3
tp525
F319.4736532520867
s(I277
I1
tp526
F300.1102050643038
s(I16
I3
tp527
F340.7929714230479
s(I17
I2
tp528
F164.49107667900319
s(I115
I2
tp529
F249.35321706722087
s(I226
I3
tp530
F301.8919759893328
s(I68
I3
tp531
F282.30024455019355
s(I69
I2
tp532
F323.9855085585963
s(I22
I3
tp533
F330.00218775950225
s(I104
I3
tp534
F322.8587424110998
s(I105
I2
tp535
F316.4724842046887
s(I271
I3
tp536
F299.58191380847137
s(I58
I3
tp537
F322.0000270325134
s(I81
I1
tp538
F257.7905612568315
s(I220
I1
tp539
F321.7331339015323
s(I307
I3
tp540
F244.35740786983166
s(I260
I2
tp541
F316.7124486463467
s(I261
I3
tp542
F310.7381255474173
s(I241
I2
tp543
F319.00016879832737
s(I233
I1
tp544
F291.7592171331631
s(I297
I3
tp545
F321.9394494247919
s(I52
I1
tp546
F334.75241629017165
s(I191
I3
tp547
F337.42360883190497
s(I278
I1
tp548
F347.064855544568
s(I302
I2
tp549
F291.2847336490422
s(I65
I1
tp550
F241.86721457019163
s(I129
I3
tp551
F259.5980603928926
s(I227
I3
tp552
F309.4320170758731
s(I180
I2
tp553
F326.7342408622012
s(I267
I2
tp554
F303.4792738771025
s(I291
I1
tp555
F310.6076985096944
s(I23
I3
tp556
F308.9205113932935
s(I216
I2
tp557
F297.63114519954814
s(I256
I3
tp558
F307.97650777152444
s(I217
I3
tp559
F310.70486674304084
s(I59
I3
tp560
F263.22141681262013
s(I257
I2
tp561
F305.42959285159844
s(I12
I2
tp562
F179.70975479340856
s(I13
I3
tp563
F320.50036355614014
s(I198
I1
tp564
F316.1939306836993
s(I222
I2
tp565
F303.5437002937588
s(I48
I2
tp566
F310.1128983783107
s(I262
I3
tp567
F333.7493653404939
s(I234
I1
tp568
F298.55006619514955
s(I187
I2
tp569
F309.28472574355646
s(I211
I1
tp570
F298.08990837738645
s(I298
I3
tp571
F299.9906693479758
s(I54
I2
tp572
F298.34546508914633
s(I141
I2
tp573
F308.3359689223686
s(I239
I2
tp574
F309.14933052594193
s(I66
I1
tp575
F261.5665492748053
s(I90
I2
tp576
F250.90371417415537
s(I19
I2
tp577
F237.29480043264343
s(I43
I1
tp578
F302.2915385873587
s(I130
I3
tp579
F265.8578521902527
s(I228
I3
tp580
F317.03553366077944
s(I118
I1
tp581
F212.2322073916051
s(I229
I2
tp582
F333.8662791944896
s(I71
I2
tp583
F279.9785067971608
s(I95
I1
tp584
F310.51587199825667
s(I182
I3
tp585
F289.9193670545644
s(I269
I1
tp586
F326.1550780739943
s(I8
I3
tp587
F173.5214667646395
s(I9
I2
tp588
F306.01588735425867
s(I107
I2
tp589
F320.54732592316094
s(I218
I3
tp590
F311.5489962507994
s(I305
I1
tp591
F306.4411190390499
s(I60
I3
tp592
F315.9909553474846
s(I128
I2
tp593
F243.06011512145534
s(I14
I3
tp594
F108.52897334563778
s(I96
I3
tp595
F316.3982609669024
s(I217
I1
tp596
F304.7131135128127
s(I263
I3
tp597
F318.1527049741804
s(I50
I3
tp598
F277.68894385961704
s(I212
I1
tp599
F295.7963058236781
s(I299
I3
tp600
F274.31881627010193
s(I102
I3
tp601
F319.84148006695614
s(I189
I1
tp602
F324.56341238965575
s(I248
I1
tp603
F310.11394501817836
s(I225
I1
tp604
F325.3169195303615
s(I289
I3
tp605
F305.1720301512812
s(I44
I1
tp606
F174.08057167752727
s(I131
I3
tp607
F268.4141821677113
s(I21
I1
tp608
F310.3830115204517
s(I80
I1
tp609
F161.08403592097847
s(I183
I3
tp610
F300.061264039077
s(I270
I1
tp611
F301.2527592785883
s(I294
I2
tp612
F322.74043896120145
s(I57
I1
tp613
F284.4962692603435
s(I117
I1
tp614
F212.0291129776842
s(I219
I3
tp615
F320.004600654387
s(I306
I1
tp616
F295.0074037429164
s(I259
I2
tp617
F308.3064875162174
s(I283
I1
tp618
F285.88575234293427
s(I15
I3
tp619
F313.00503995442114
s(I208
I2
tp620
F309.9409934855672
s(I209
I3
tp621
F333.2737357530304
s(I51
I3
tp622
F302.0412473761471
s(I4
I2
tp623
F306.2783170585816
s(I300
I3
tp624
F353.744129834319
s(I5
I3
tp625
F32.0382324733319
s(I103
I3
tp626
F328.5816355916722
s(I190
I1
tp627
F310.4936674402805
s(I214
I2
tp628
F301.31632907358596
s(I301
I2
tp629
F297.8125257782864
s(I40
I2
tp630
F278.6028234113801
s(I143
I2
tp631
F314.5084392801666
s(I167
I1
tp632
F158.10855905251424
s(I41
I3
tp633
F312.6877318973076
s(I226
I1
tp634
F326.1192691753903
s(I250
I2
tp635
F298.7735373901411
s(I92
I2
tp636
F258.33374242670754
s(I203
I1
tp637
F313.20341522943716
s(I290
I3
tp638
F306.4831372931516
s(I132
I3
tp639
F257.63947155061976
s(I93
I3
tp640
F320.3499515505667
s(I22
I1
tp641
F36.838200815823484
s(I46
I2
tp642
F261.42340813051976
s(I231
I2
tp643
F339.61699887865336
s(I255
I1
tp644
F307.8638141076173
s(I168
I3
tp645
F318.78880337619324
s(I58
I1
tp646
F226.73053088570046
s(I82
I2
tp647
F254.60494792217264
s(I11
I2
tp648
F315.7005605368967
s(I220
I3
tp649
F293.5651463448637
s(I221
I2
tp650
F304.70250986158464
s(I63
I2
tp651
F252.77684965909202
s(I261
I1
tp652
F339.8522942629516
s(I264
I2
tp653
F320.32395625991114
s(I1
I2
tp654
F333.2811214173548
s(I272
I1
tp655
F328.2056940543866
s(I210
I3
tp656
F303.413476472154
s(I297
I1
tp657
F494.6395677690673
s(I52
I3
tp658
F304.66950830541606
s(I53
I2
tp659
F302.19193846192104
s(I6
I3
tp660
F27.297378034215157
s(I89
I2
tp661
F239.9970747891309
s(I42
I3
tp662
F268.9726500752856
s(I129
I1
tp663
F236.38655864603635
s(I204
I1
tp664
F301.6050908838191
s(I291
I3
tp665
F321.5102175165464
s(I94
I3
tp666
F246.84509913704375
s(I240
I1
tp667
F297.2132120431075
s(I280
I2
tp668
F318.450357874986
s(I281
I3
tp669
F323.78623658386164
s(I36
I1
tp670
F263.0132863240056
s(I13
I1
tp671
F146.11267095799656
s(I72
I1
tp672
F198.88898873220563
s(I262
I1
tp673
F298.1446099162132
s(I286
I2
tp674
F274.5977984169892
s(I211
I3
tp675
F309.8646200105866
s(I298
I1
tp676
F309.52903503333073
s(I275
I1
tp677
F334.4204499981855
s.