(dp0
(I7
I3
tp1
F408.26633274510203
s(I200
I2
tp2
F1283.9567880750883
s(I303
I2
tp3
F477.51696346108116
s(I201
I3
tp4
F1624.7159874156177
s(I43
I3
tp5
F2403.0742845482537
s(I130
I1
tp6
F1678.9509747815393
s(I154
I2
tp7
F1254.4804349164742
s(I252
I2
tp8
F1232.1841735983385
s(I292
I3
tp9
F1218.208542625567
s(I253
I3
tp10
F1843.0590481485917
s(I95
I3
tp11
F1845.827999219532
s(I182
I1
tp12
F2220.6187105719064
s(I206
I2
tp13
F1119.5278620313986
s(I293
I2
tp14
F790.9773163639173
s(I218
I1
tp15
F1781.138895075953
s(I242
I2
tp16
F1219.92202802808
s(I84
I2
tp17
F1198.486325090019
s(I195
I1
tp18
F1840.1909817681865
s(I282
I3
tp19
F1507.6017501316558
s(I14
I1
tp20
F2473.41577270245
s(I38
I2
tp21
F1216.3997354972305
s(I120
I2
tp22
F1627.3682180468884
s(I223
I2
tp23
F933.5485089350994
s(I247
I1
tp24
F1604.9601386157408
s(I50
I1
tp25
F2238.6120246132655
s(I256
I1
tp26
F1341.954675965785
s(I3
I2
tp27
F-442.5750305058558
s(I212
I3
tp28
F1765.869440758414
s(I102
I1
tp29
F1784.4879325613067
s(I213
I2
tp30
F1230.3279958711253
s(I55
I2
tp31
F1246.9818391451704
s(I79
I1
tp32
F1673.1399843442882
s(I248
I3
tp33
F1724.3736900108522
s(I249
I2
tp34
F1095.5148423766489
s(I91
I2
tp35
F1017.9424118896314
s(I115
I1
tp36
F1815.2158928964764
s(I202
I3
tp37
F1560.5260358830399
s(I289
I1
tp38
F1505.5394593559363
s(I44
I3
tp39
F2261.6661210003535
s(I45
I2
tp40
F1320.4430140222726
s(I254
I3
tp41
F1838.0763635673181
s(I80
I3
tp42
F1939.7402696430095
s(I81
I2
tp43
F1438.8371286291178
s(I93
I2
tp44
F1351.4115600000077
s(I196
I1
tp45
F1938.5128271299182
s(I283
I3
tp46
F1309.1686112641287
s(I300
I2
tp47
F427.7252240921333
s(I232
I1
tp48
F1962.951472176351
s(I272
I2
tp49
F1266.4639059035703
s(I273
I3
tp50
F1746.866794216735
s(I5
I1
tp51
F621.9325084652139
s(I64
I1
tp52
F2547.223605295038
s(I167
I3
tp53
F2324.914503422646
s(I278
I2
tp54
F1412.3678881592282
s(I41
I1
tp55
F1753.7145433866497
s(I116
I1
tp56
F2451.609886405578
s(I203
I3
tp57
F1657.031259486017
s(I290
I1
tp58
F1458.8780851286049
s(I93
I1
tp59
F2376.156901066192
s(I267
I1
tp60
F1700.2875275356344
s(I255
I3
tp61
F1532.930765370105
s(I192
I2
tp62
F1218.7709738535186
s(I295
I2
tp63
F-276.3433866069571
s(I193
I3
tp64
F1653.0287541229545
s(I244
I2
tp65
F1166.1169314793428
s(I284
I3
tp66
F1574.9743197678322
s(I245
I3
tp67
F1433.9797576873725
s(I198
I2
tp68
F1167.2764046731272
s(I285
I2
tp69
F-1262.8639244547207
s(I210
I1
tp70
F1646.0502937074507
s(I234
I2
tp71
F1156.8153851185552
s(I76
I2
tp72
F1156.2730441056078
s(I187
I1
tp73
F2084.403748177455
s(I274
I3
tp74
F1669.6378911202667
s(I77
I3
tp75
F1987.756386239754
s(I6
I1
tp76
F1463.9937534055555
s(I215
I2
tp77
F1471.7364542582957
s(I239
I1
tp78
F1756.1249138204787
s(I42
I1
tp79
F2513.6867693628433
s(I66
I2
tp80
F1503.7485504096105
s(I251
I2
tp81
F1131.302208722486
s(I19
I1
tp82
F1161.5157481881517
s(I204
I3
tp83
F1543.7154120884006
s(I94
I1
tp84
F2622.885691303565
s(I118
I2
tp85
F1370.572202433034
s(I205
I2
tp86
F1169.5586613664705
s(I47
I2
tp87
F1108.4362874578942
s(I71
I1
tp88
F2115.8561433158466
s(I240
I3
tp89
F1572.5351941261238
s(I241
I2
tp90
F1227.7989809277003
s(I83
I2
tp91
F1547.3335519939014
s(I107
I1
tp92
F2594.237726055967
s(I194
I3
tp93
F1844.6064100417605
s(I281
I1
tp94
F1763.8155425074701
s(I36
I3
tp95
F1872.1183536091928
s(I132
I2
tp96
F1377.1118404486253
s(I37
I2
tp97
F1143.1451154211295
s(I246
I3
tp98
F1573.8331837097826
s(I72
I3
tp99
F1701.9048070121278
s(I284
I2
tp100
F896.1446412239943
s(I292
I1
tp101
F1196.4091952728918
s(I188
I1
tp102
F2220.9644111952844
s(I275
I3
tp103
F1643.9268702513866
s(I78
I3
tp104
F1716.3772974330839
s(I224
I1
tp105
F1671.949478513964
s(I264
I2
tp106
F1165.8740869535102
s(I265
I3
tp107
F1748.3397709772664
s(I20
I1
tp108
F1381.4946992094644
s(I253
I1
tp109
F1994.9724825121468
s(I56
I1
tp110
F1993.1789525034246
s(I270
I2
tp111
F1255.5034008745408
s(I168
I2
tp112
F1458.5173382436806
s(I108
I1
tp113
F2224.9338098259745
s(I195
I3
tp114
F1701.006100082604
s(I282
I1
tp115
F1606.3832541049244
s(I306
I2
tp116
F-609.8789620297352
s(I259
I1
tp117
F1766.9689827514412
s(I247
I3
tp118
F1391.7411024984765
s(I184
I2
tp119
F1669.7180777942967
s(I287
I2
tp120
F645.8092333793918
s(I185
I3
tp121
F2431.307239732061
s(I236
I2
tp122
F1005.6080409772769
s(I276
I3
tp123
F1843.6132069889345
s(I237
I3
tp124
F1578.4420639491243
s(I79
I3
tp125
F1986.5411077225176
s(I190
I2
tp126
F1624.511663239454
s(I277
I2
tp127
F1219.0840220519779
s(I16
I2
tp128
F1118.4358761808905
s(I143
I1
tp129
F2519.871900162621
s(I17
I3
tp130
F1559.0413700258616
s(I115
I3
tp131
F1906.3204011054993
s(I202
I1
tp132
F1655.1097333043706
s(I226
I2
tp133
F1234.0727822938918
s(I68
I2
tp134
F1701.554218867552
s(I155
I2
tp135
F1281.9989621484199
s(I266
I3
tp136
F1874.5910391584705
s(I69
I3
tp137
F2053.156119467426
s(I254
I1
tp138
F1687.2159608763943
s(I22
I2
tp139
F891.566876183456
s(I104
I2
tp140
F1233.5873435899066
s(I207
I2
tp141
F1095.5693651459671
s(I231
I1
tp142
F1707.5503059571083
s(I144
I3
tp143
F2312.128816201558
s(I105
I3
tp144
F2193.510405623634
s(I58
I2
tp145
F1345.6733083969204
s(I243
I2
tp146
F1270.3724517676203
s(I11
I1
tp147
F2207.2545644010947
s(I196
I3
tp148
F1873.2756860948505
s(I197
I2
tp149
F1245.1213803870069
s(I39
I2
tp150
F1356.5365498064384
s(I63
I1
tp151
F2239.417615589278
s(I232
I3
tp152
F1741.5621013281345
s(I268
I2
tp153
F1320.681316690245
s(I233
I2
tp154
F1094.8487808228283
s(I276
I1
tp155
F2171.220784052802
s(I186
I3
tp156
F2208.716917464646
s(I273
I1
tp157
F1998.7158676901704
s(I238
I3
tp158
F1627.3754229338933
s(I64
I3
tp159
F2152.7902231800176
s(I65
I2
tp160
F1249.8112902342025
s(I18
I3
tp161
F1684.597126696286
s(I116
I3
tp162
F1949.847050377108
s(I117
I2
tp163
F1471.4087691598124
s(I267
I3
tp164
F1801.9072689287032
s(I70
I3
tp165
F1984.9916365825454
s(I216
I1
tp166
F1910.4531209828472
s(I106
I3
tp167
F2110.3232576903974
s(I193
I1
tp168
F1794.102129226718
s(I257
I3
tp169
F1783.0705071674379
s(I12
I1
tp170
F1451.6862511009347
s(I263
I3
tp171
F1751.1925306314904
s(I245
I1
tp172
F1815.3022102553343
s(I241
I1
tp173
F1681.1122100580217
s(I48
I1
tp174
F2211.460282721378
s(I262
I2
tp175
F1275.0055892609967
s(I187
I3
tp176
F2270.035935326666
s(I274
I1
tp177
F1631.390400225264
s(I298
I2
tp178
F797.7187830019433
s(I77
I1
tp179
F2323.629491608269
s(I141
I3
tp180
F2298.2191280121624
s(I239
I3
tp181
F1548.8797450729496
s(I279
I2
tp182
F1374.0408286991244
s(I303
I1
tp183
F1040.3829536932021
s(I19
I3
tp184
F1761.8693202003892
s(I130
I2
tp185
F1213.4207480450814
s(I228
I2
tp186
F1146.2610959592876
s(I268
I3
tp187
F1739.1977591209504
s(I229
I3
tp188
F1482.4824992233318
s(I71
I3
tp189
F2302.455156956481
s(I182
I2
tp190
F1752.1407289235592
s(I269
I2
tp191
F1328.0625191928614
s(I8
I2
tp192
F-39.474416718979825
s(I304
I3
tp193
F1040.3469754336209
s(I9
I3
tp194
F108.32602316359433
s(I107
I3
tp195
F2298.376654696554
s(I194
I1
tp196
F1590.6770311702785
s(I218
I2
tp197
F1358.6159793347638
s(I305
I2
tp198
F391.30038057520926
s(I60
I2
tp199
F1255.50482838439
s(I258
I3
tp200
F1589.0416464884986
s(I246
I1
tp201
F1767.218873571902
s(I14
I2
tp202
F1333.7708723389164
s(I96
I2
tp203
F1393.4591370703743
s(I199
I2
tp204
F1049.5521288778991
s(I223
I1
tp205
F1775.0682311495334
s(I50
I2
tp206
F1353.0470305150297
s(I260
I1
tp207
F2192.522269401562
s(I235
I2
tp208
F1015.6286511316572
s(I3
I1
tp209
F268.87179005866017
s(I188
I3
tp210
F2060.5260847674404
s(I300
I1
tp211
F1113.978305018799
s(I78
I1
tp212
F1957.732514440034
s(I102
I2
tp213
F1222.578154784364
s(I189
I2
tp214
F1770.0163844341562
s(I55
I1
tp215
F2241.434052325961
s(I142
I3
tp216
F1960.2315503523494
s(I224
I3
tp217
F1759.2463151624138
s(I288
I1
tp218
F1646.8899804301848
s(I67
I2
tp219
F1424.9962116425233
s(I91
I1
tp220
F1666.3143189897369
s(I265
I1
tp221
F1887.2262564336602
s(I20
I3
tp222
F1992.256439712549
s(I21
I2
tp223
F996.0955023786937
s(I119
I2
tp224
F1214.5176112666522
s(I230
I3
tp225
F1762.743773203261
s(I56
I3
tp226
F2502.3409700861494
s(I57
I2
tp227
F1311.5800314977698
s(I10
I3
tp228
F537.322216525553
s(I108
I3
tp229
F1966.8303584413889
s(I144
I1
tp230
F2947.4909720975675
s(I259
I3
tp231
F1849.9060974835058
s(I225
I1
tp232
F1853.9122415859615
s(I208
I1
tp233
F1842.658379087216
s(I185
I1
tp234
F2667.160007484077
s(I4
I1
tp235
F708.7446371100501
s(I237
I1
tp236
F1782.0201447957734
s(I301
I3
tp237
F1085.4898445122349
s(I40
I1
tp238
F2490.1548391162005
s(I143
I3
tp239
F2449.227316808843
s(I17
I1
tp240
F1037.7758904951654
s(I92
I1
tp241
F2014.4907075056906
s(I266
I1
tp242
F2048.6716350145653
s(I290
I2
tp243
F786.4082131243703
s(I69
I1
tp244
F1863.5842315116527
s(I231
I3
tp245
F1919.2979071531715
s(I105
I1
tp246
F2609.441664917364
s(I271
I2
tp247
F1296.2479115888284
s(I295
I1
tp248
F1135.5729368222396
s(I11
I3
tp249
F1748.730219650331
s(I220
I2
tp250
F1038.9483529209556
s(I307
I2
tp251
F49.72735788883957
s(I260
I3
tp252
F1840.0781553017584
s(I221
I3
tp253
F1510.3768112881064
s(I63
I3
tp254
F1727.9729106716445
s(I261
I2
tp255
F1338.153664549489
s(I1
I3
tp256
F1237.246193800576
s(I186
I1
tp257
F2508.2735080275543
s(I210
I2
tp258
F1303.6051522855955
s(I297
I2
tp259
F762.3129142025605
s(I52
I2
tp260
F1403.3761120668999
s(I53
I3
tp261
F1674.9536426359368
s(I238
I1
tp262
F1828.685518642608
s(I6
I2
tp263
F-144.13615649639047
s(I191
I2
tp264
F999.4160964720154
s(I215
I1
tp265
F1892.1094989986595
s(I302
I3
tp266
F1034.1247179604843
s(I128
I3
tp267
F2058.5325997375226
s(I89
I3
tp268
F2095.5844010854803
s(I18
I1
tp269
F1391.694622465353
s(I42
I2
tp270
F1420.2896161224355
s(I129
I2
tp271
F1584.7073163761236
s(I227
I2
tp272
F1257.132344631616
s(I251
I1
tp273
F1625.7000595404172
s(I180
I3
tp274
F2281.5383706462394
s(I70
I1
tp275
F1960.458835289322
s(I94
I2
tp276
F1557.2629940384816
s(I23
I2
tp277
F917.989748325823
s(I47
I1
tp278
F2328.9670165242956
s(I216
I3
tp279
F1728.5965608139459
s(I106
I1
tp280
F1693.9531021113744
s(I280
I1
tp281
F1758.042750796365
s(I59
I2
tp282
F1163.486801614376
s(I83
I1
tp283
F2203.9874950991793
s(I257
I1
tp284
F2089.475253019101
s(I12
I3
tp285
F1901.985610501235
s(I128
I1
tp286
F2418.2766343623084
s(I13
I2
tp287
F1021.5193897905507
s(I222
I3
tp288
F2052.764652750623
s(I48
I3
tp289
F1981.1342128551025
s(I209
I1
tp290
F1442.0489383020986
s(I217
I2
tp291
F1027.0291284417076
s(I54
I3
tp292
F2199.5532266197506
s(I141
I1
tp293
F2588.053352311151
s(I200
I1
tp294
F1571.6696935920384
s(I303
I3
tp295
F1081.0677337606883
s(I90
I3
tp296
F1779.6206395140273
s(I252
I1
tp297
F1892.715266132209
s(I292
I2
tp298
F850.7637556807032
s(I293
I3
tp299
F1183.391023861035
s(I9
I1
tp300
F1851.2565709516523
s(I180
I1
tp301
F2132.9217967475006
s(I84
I1
tp302
F2315.327221263339
s(I258
I1
tp303
F1821.29195997514
s(I282
I2
tp304
F852.471374190387
s(I120
I1
tp305
F2615.141446941252
s(I223
I3
tp306
F1457.0587534129722
s(I263
I2
tp307
F1248.0966865998553
s(I287
I1
tp308
F1453.473280533083
s(I3
I3
tp309
F1212.6815985086862
s(I212
I2
tp310
F1167.5670273749722
s(I299
I2
tp311
F778.6251050669639
s(I213
I3
tp312
F1570.2015607434978
s(I55
I3
tp313
F1780.0373219432488
s(I142
I1
tp314
F1959.9981276959768
s(I248
I2
tp315
F1198.449159346151
s(I288
I3
tp316
F1558.2187412227179
s(I249
I3
tp317
F1596.7385360404126
s(I91
I3
tp318
F2172.552751044229
s(I202
I2
tp319
F1045.908460900757
s(I289
I2
tp320
F775.7909264495494
s(I44
I2
tp321
F1144.1803901638968
s(I131
I2
tp322
F1336.7552372350904
s(I155
I1
tp323
F2264.7951997390114
s(I45
I3
tp324
F2247.571372724004
s(I230
I1
tp325
F1555.0814550726002
s(I254
I2
tp326
F1363.1533364573174
s(I80
I2
tp327
F1315.8160132833966
s(I183
I2
tp328
F1739.9314383714889
s(I207
I1
tp329
F1743.41874971749
s(I294
I3
tp330
F1413.7089241242838
s(I81
I3
tp331
F1950.2121498655092
s(I10
I1
tp332
F1462.9458278608558
s(I219
I2
tp333
F1165.2027774647618
s(I243
I1
tp334
F1446.8988237260976
s(I15
I2
tp335
F305.5308270559402
s(I39
I1
tp336
F2142.8260693299208
s(I208
I3
tp337
F1856.9245276911759
s(I256
I2
tp338
F1229.3522667621455
s(I209
I2
tp339
F959.845784563885
s(I264
I1
tp340
F1775.229320699821
s(I51
I2
tp341
F1329.5044318528328
s(I4
I3
tp342
F1678.56144655303
s(I5
I2
tp343
F105.4896348276657
s(I103
I2
tp344
F1708.971132931396
s(I214
I3
tp345
F1614.563767720552
s(I301
I1
tp346
F1143.7953537628812
s(I40
I3
tp347
F2103.2064878342135
s(I41
I2
tp348
F1371.992591669812
s(I250
I3
tp349
F1794.5060665099209
s(I92
I3
tp350
F2165.9747770526583
s(I156
I1
tp351
F2649.7084324987427
s(I46
I3
tp352
F2014.2306337614668
s(I192
I1
tp353
F1817.5484292046185
s(I295
I3
tp354
F1092.6113593941147
s(I82
I3
tp355
F1517.6794830321362
s(I156
I2
tp356
F1309.804452031581
s(I244
I1
tp357
F1898.10367681842
s(I221
I1
tp358
F1623.0130859311334
s(I285
I3
tp359
F1523.3131764380996
s(I1
I1
tp360
F-165.72053635497656
s(I76
I1
tp361
F2126.2213467363786
s(I274
I2
tp362
F1327.7090434841648
s(I53
I1
tp363
F1988.722763683003
s(I215
I3
tp364
F1842.766156559615
s(I302
I1
tp365
F1083.5371128860334
s(I89
I1
tp366
F1984.7379039483121
s(I279
I1
tp367
F1809.80604127512
s(I251
I3
tp368
F1707.8976423050065
s(I204
I2
tp369
F1042.0841363178956
s(I291
I2
tp370
F662.0671190040258
s(I205
I3
tp371
F1584.8589605788795
s(I47
I3
tp372
F1873.9688494838806
s(I240
I2
tp373
F1349.0566403842201
s(I280
I3
tp374
F1477.639716578899
s(I241
I3
tp375
F1535.8813268468023
s(I83
I3
tp376
F2083.636824232052
s(I194
I2
tp377
F1243.059958108109
s(I281
I2
tp378
F1128.234148608374
s(I36
I2
tp379
F1229.4201070536383
s(I37
I3
tp380
F1826.0952801438393
s(I222
I1
tp381
F1812.184739738532
s(I246
I2
tp382
F1157.1270893458877
s(I72
I2
tp383
F1262.1524692921964
s(I199
I1
tp384
F1709.7497160114915
s(I286
I3
tp385
F1155.679964830032
s(I211
I2
tp386
F1145.9193185062345
s(I235
I1
tp387
F1670.4584977030809
s(I54
I1
tp388
F1643.1972742564674
s(I78
I2
tp389
F1186.5089457998786
s(I7
I2
tp390
F-1064.9980742297312
s(I200
I3
tp391
F1817.164455900744
s(I90
I1
tp392
F1912.4091683501758
s(I201
I2
tp393
F1096.491523609384
s(I43
I2
tp394
F1363.014482138302
s(I67
I1
tp395
F2290.1798873982907
s(I154
I3
tp396
F1902.7159442385075
s(I252
I3
tp397
F1715.9259373745751
s(I253
I2
tp398
F1177.1608487269777
s(I95
I2
tp399
F1681.044458962333
s(I119
I1
tp400
F1713.5033888407233
s(I206
I3
tp401
F1628.7489140967964
s(I293
I1
tp402
F1209.6247561970483
s(I242
I3
tp403
F1563.2171312571115
s(I84
I3
tp404
F1960.6301326985676
s(I38
I3
tp405
F1826.0269801721424
s(I120
I3
tp406
F2301.1652607963006
s(I229
I1
tp407
F1940.4409479528913
s(I184
I1
tp408
F2340.7825428908654
s(I287
I3
tp409
F1389.565261522373
s(I236
I1
tp410
F1540.167029369396
s(I213
I1
tp411
F1738.0508295996517
s(I277
I3
tp412
F1752.9639933458632
s(I16
I1
tp413
F2502.346925558927
s(I249
I1
tp414
F1963.3294594798501
s(I68
I1
tp415
F2136.0556997015256
s(I155
I3
tp416
F1839.1894302242356
s(I266
I2
tp417
F1351.1893858708693
s(I45
I1
tp418
F2056.2168740662737
s(I104
I1
tp419
F2187.9842172117837
s(I207
I3
tp420
F1466.5193676147662
s(I294
I1
tp421
F1473.3479965169524
s(I144
I2
tp422
F1626.1485727338281
s(I271
I1
tp423
F1903.4531598337103
s(I243
I3
tp424
F1609.1056335959647
s(I196
I2
tp425
F1269.975899746162
s(I283
I2
tp426
F649.5873983065457
s(I307
I1
tp427
F1088.012393331505
s(I197
I3
tp428
F1935.7266921647415
s(I39
I3
tp429
F1805.8526679206564
s(I232
I2
tp430
F1222.0627452656806
s(I272
I3
tp431
F1906.2246828909235
s(I233
I3
tp432
F1657.949838240162
s(I186
I2
tp433
F1551.2076635578867
s(I273
I2
tp434
F1255.2670788441355
s(I214
I1
tp435
F1622.5776495990024
s(I238
I2
tp436
F1048.7912918928218
s(I64
I2
tp437
F1514.235023725422
s(I167
I2
tp438
F1455.1299686777222
s(I191
I1
tp439
F1630.9041628742534
s(I278
I3
tp440
F1761.1013160647185
s(I65
I3
tp441
F1872.915683567173
s(I250
I1
tp442
F1563.9802654936084
s(I18
I2
tp443
F1050.004019162015
s(I116
I2
tp444
F1251.6390298334752
s(I203
I2
tp445
F1159.5412097252863
s(I227
I1
tp446
F2015.2439489297303
s(I156
I3
tp447
F2238.5591455957115
s(I117
I3
tp448
F1911.2041386409778
s(I46
I1
tp449
F2000.4894295092618
s(I70
I2
tp450
F1466.1928900285084
s(I255
I2
tp451
F1152.7091751260562
s(I23
I1
tp452
F1398.1149203057385
s(I192
I3
tp453
F1637.0886994685288
s(I82
I1
tp454
F1729.751179153064
s(I106
I2
tp455
F1144.6294717013961
s(I193
I2
tp456
F1334.7869249079768
s(I59
I1
tp457
F1679.9003567093632
s(I244
I3
tp458
F1569.3304630560758
s(I132
I1
tp459
F2069.9222924056035
s(I245
I2
tp460
F968.9574788983442
s(I198
I3
tp461
F1551.709132471906
s(I285
I1
tp462
F1616.6941370815773
s(I276
I2
tp463
F1334.4228701024606
s(I221
I2
tp464
F1218.7980120842349
s(I234
I3
tp465
F1471.567502287367
s(I76
I3
tp466
F1803.34320440232
s(I77
I2
tp467
F1557.2245210781912
s(I279
I3
tp468
F1856.7427826948933
s(I66
I3
tp469
F2086.427518461156
s(I228
I1
tp470
F1646.2602824273324
s(I118
I3
tp471
F1981.6788821884816
s(I205
I1
tp472
F1759.098914725678
s(I269
I3
tp473
F1791.7859336968615
s(I8
I1
tp474
F1007.1751197347359
s(I304
I2
tp475
F224.59591764453603
s(I105
I2
tp476
F1505.1405022079514
s(I305
I3
tp477
F1057.423686770516
s(I60
I1
tp478
F1822.8191728913284
s(I258
I2
tp479
F1124.9801569143824
s(I37
I1
tp480
F2376.8133999254196
s(I96
I1
tp481
F2279.262757076043
s(I199
I3
tp482
F1552.6538615332704
s(I286
I1
tp483
F1128.8892832420627
s(I263
I1
tp484
F1944.66151661331
s(I235
I3
tp485
F1365.8442917192706
s(I188
I2
tp486
F1484.513668796229
s(I275
I2
tp487
F1312.0361815952558
s(I299
I1
tp488
F1010.5528604686423
s(I189
I3
tp489
F2334.267240548067
s(I142
I2
tp490
F1087.5908226057509
s(I224
I2
tp491
F1291.9235079171892
s(I264
I3
tp492
F1841.1539163778973
s(I225
I3
tp493
F1665.474624453171
s(I67
I3
tp494
F1970.349218374569
s(I154
I1
tp495
F2235.6066566212617
s(I265
I2
tp496
F1305.4730494671032
s(I20
I2
tp497
F963.5000103198914
s(I131
I1
tp498
F1906.1063583032112
s(I21
I3
tp499
F1918.3173964220728
s(I119
I3
tp500
F1764.022905426025
s(I206
I1
tp501
F1408.1342635740496
s(I230
I2
tp502
F1184.479211468778
s(I56
I2
tp503
F1093.2926987296112
s(I183
I1
tp504
F3093.0896531453436
s(I270
I3
tp505
F1645.7601958408611
s(I57
I3
tp506
F1897.2769909564909
s(I242
I1
tp507
F2016.9479489059104
s(I10
I2
tp508
F-672.0016620006961
s(I108
I2
tp509
F1350.0437711056466
s(I195
I2
tp510
F1278.7469027245309
s(I219
I1
tp511
F1456.857980292045
s(I306
I3
tp512
F1039.8203293651882
s(I38
I1
tp513
F1937.5066529629826
s(I247
I2
tp514
F1060.3705754385624
s(I15
I1
tp515
F1147.5787849974936
s(I184
I3
tp516
F2332.008687628613
s(I260
I2
tp517
F1125.132535746727
s(I185
I2
tp518
F1792.991728952936
s(I268
I1
tp519
F2105.049974364675
s(I51
I1
tp520
F1843.4938689072453
s(I236
I3
tp521
F1693.471580643964
s(I237
I2
tp522
F1235.9450254545532
s(I79
I2
tp523
F1355.9731700969025
s(I103
I1
tp524
F2554.737058010125
s(I190
I3
tp525
F2313.0283084443054
s(I277
I1
tp526
F1707.6952156069287
s(I16
I3
tp527
F1366.792328838691
s(I17
I2
tp528
F706.1739599934818
s(I115
I2
tp529
F1091.312486185233
s(I226
I3
tp530
F1553.625305947137
s(I68
I3
tp531
F2113.2607984872075
s(I69
I2
tp532
F1083.3333832144563
s(I22
I3
tp533
F962.0964657140505
s(I104
I3
tp534
F2052.7340065524163
s(I168
I1
tp535
F2677.1476246015054
s(I271
I3
tp536
F1700.8698006320244
s(I58
I3
tp537
F2161.7429633903052
s(I81
I1
tp538
F1968.1924255118347
s(I220
I1
tp539
F1576.558876478056
s(I307
I3
tp540
F1047.000946505992
s(I197
I1
tp541
F1980.8204690394525
s(I261
I3
tp542
F1602.0437120542042
s(I304
I1
tp543
F1087.3933507615359
s(I233
I1
tp544
F1576.1900582929795
s(I297
I3
tp545
F993.2853107262289
s(I52
I1
tp546
F2597.2727248314977
s(I191
I3
tp547
F1466.5690519473467
s(I278
I1
tp548
F1984.3098866964888
s(I302
I2
tp549
F546.4661491072999
s(I65
I1
tp550
F2358.094668207946
s(I129
I3
tp551
F2134.2612108528683
s(I227
I3
tp552
F1714.1250437435508
s(I180
I2
tp553
F1510.8248330998572
s(I267
I2
tp554
F1217.509161139048
s(I291
I1
tp555
F1483.9200976495474
s(I23
I3
tp556
F2016.9663251864877
s(I216
I2
tp557
F1428.6950936070061
s(I256
I3
tp558
F1678.685283239255
s(I217
I3
tp559
F1423.023750582933
s(I59
I3
tp560
F1861.8120154682554
s(I257
I2
tp561
F1137.9231324907835
s(I12
I2
tp562
F983.8337273986455
s(I13
I3
tp563
F1567.912275492435
s(I198
I1
tp564
F1834.6844490782428
s(I222
I2
tp565
F1197.6382333951847
s(I48
I2
tp566
F1553.7003459520781
s(I262
I3
tp567
F1965.7192228804347
s(I234
I1
tp568
F1610.8760571520606
s(I187
I2
tp569
F1699.566174498516
s(I211
I1
tp570
F1870.4930326118579
s(I298
I3
tp571
F1002.7570480051248
s(I54
I2
tp572
F1347.1758228226397
s(I141
I2
tp573
F1574.6499278131153
s(I239
I2
tp574
F1064.52809394923
s(I7
I1
tp575
F1321.5108123673326
s(I66
I1
tp576
F2598.1016597575717
s(I90
I2
tp577
F1278.000552181945
s(I19
I2
tp578
F856.9303729566076
s(I43
I1
tp579
F2087.206410173532
s(I130
I3
tp580
F2202.7402266219556
s(I228
I3
tp581
F1612.6729214226289
s(I118
I1
tp582
F2401.556921252956
s(I229
I2
tp583
F1138.0929674690462
s(I71
I2
tp584
F1598.148129269383
s(I95
I1
tp585
F2535.440461511188
s(I182
I3
tp586
F2789.3762646118626
s(I269
I1
tp587
F1993.069120410088
s(I8
I3
tp588
F1771.3081460721603
s(I9
I2
tp589
F-29.09984968057097
s(I107
I2
tp590
F1460.8400229034098
s(I218
I3
tp591
F1856.8441333176115
s(I305
I1
tp592
F1107.2120450704824
s(I60
I3
tp593
F2010.4175180180584
s(I128
I2
tp594
F1465.0389303543373
s(I14
I3
tp595
F1822.1317088427188
s(I96
I3
tp596
F2262.9418488620568
s(I217
I1
tp597
F1879.5031675966216
s(I225
I2
tp598
F1296.6050626762383
s(I50
I3
tp599
F2075.2729309477454
s(I212
I1
tp600
F1453.4970373819456
s(I299
I3
tp601
F1046.6700473382953
s(I102
I3
tp602
F2078.4696144479926
s(I189
I1
tp603
F2285.9856886860885
s(I248
I1
tp604
F1466.2496256962102
s(I288
I2
tp605
F840.8086481004219
s(I289
I3
tp606
F1403.5912200862447
s(I44
I1
tp607
F2566.0266595368903
s(I131
I3
tp608
F2259.9928210711673
s(I21
I1
tp609
F1461.5905266977459
s(I80
I1
tp610
F2466.844482093671
s(I183
I3
tp611
F2291.9458399596438
s(I270
I1
tp612
F2073.393536138479
s(I294
I2
tp613
F852.6247018202492
s(I57
I1
tp614
F2517.655538675174
s(I117
I1
tp615
F2167.062728466673
s(I219
I3
tp616
F1619.7396502633167
s(I306
I1
tp617
F1085.6886211515182
s(I259
I2
tp618
F1169.0940084273007
s(I283
I1
tp619
F1364.022329747694
s(I15
I3
tp620
F1821.1084516382828
s(I208
I2
tp621
F1106.0063295926448
s(I209
I3
tp622
F1616.3120768288597
s(I51
I3
tp623
F2084.770855741886
s(I4
I2
tp624
F-332.59791529892806
s(I300
I3
tp625
F1058.1599736488665
s(I5
I3
tp626
F1162.6960807267378
s(I103
I3
tp627
F2183.2989583669046
s(I190
I1
tp628
F2284.577931281834
s(I214
I2
tp629
F1213.0411701372045
s(I301
I2
tp630
F695.318549203546
s(I40
I2
tp631
F1408.1181149743059
s(I143
I2
tp632
F1476.2479296329718
s(I167
I1
tp633
F1799.7727521106651
s(I41
I3
tp634
F2090.777920340232
s(I226
I1
tp635
F1523.7750822019054
s(I250
I2
tp636
F1209.909394985668
s(I92
I2
tp637
F1428.7983629017533
s(I203
I1
tp638
F1492.6575729079873
s(I290
I3
tp639
F1544.0078210580255
s(I132
I3
tp640
F1848.110785909283
s(I93
I3
tp641
F1962.0495929299977
s(I22
I1
tp642
F1953.8862591910179
s(I46
I2
tp643
F1249.7131402007847
s(I231
I2
tp644
F1148.430129909013
s(I255
I1
tp645
F1663.868556859538
s(I168
I3
tp646
F1941.2181166447588
s(I58
I1
tp647
F1864.0266362563452
s(I82
I2
tp648
F990.3357632607249
s(I11
I2
tp649
F816.8261007669129
s(I220
I3
tp650
F1663.40822040641
s(I284
I1
tp651
F1673.5527374136068
s(I63
I2
tp652
F1203.6658356472126
s(I261
I1
tp653
F1675.3508392592266
s(I201
I1
tp654
F1858.0971026388797
s(I1
I2
tp655
F-414.31604164645216
s(I272
I1
tp656
F1832.0696416451879
s(I210
I3
tp657
F1517.447973278127
s(I297
I1
tp658
F967.5493292670532
s(I52
I3
tp659
F1948.930827040371
s(I53
I2
tp660
F1247.3076322554848
s(I6
I3
tp661
F140.26133152649908
s(I89
I2
tp662
F1505.0396542684455
s(I42
I3
tp663
F2227.8107615751
s(I129
I1
tp664
F2394.179833080766
s(I204
I1
tp665
F1408.9622507280549
s(I291
I3
tp666
F1409.3717520867176
s(I94
I3
tp667
F2156.4436725327
s(I240
I1
tp668
F1902.145671870568
s(I280
I2
tp669
F1166.6928516188775
s(I281
I3
tp670
F1616.974088900233
s(I36
I1
tp671
F1869.6893358082293
s(I13
I1
tp672
F2100.378902379639
s(I72
I1
tp673
F1619.5040552877074
s(I262
I1
tp674
F1740.005156325393
s(I286
I2
tp675
F861.3255885546813
s(I211
I3
tp676
F1615.7096217145047
s(I298
I1
tp677
F1048.8421545731414
s(I275
I1
tp678
F1704.2618520868052
s.