(dp0
(I7
I3
tp1
F162.67299647683916
s(I200
I2
tp2
F154.55968545922474
s(I303
I2
tp3
F178.88593614730004
s(I201
I3
tp4
F145.13329609727208
s(I43
I3
tp5
F151.001896321332
s(I130
I1
tp6
F156.98915489756988
s(I154
I2
tp7
F157.78226315270123
s(I252
I2
tp8
F145.44205394194583
s(I292
I3
tp9
F145.47830381953605
s(I253
I3
tp10
F147.73392894372483
s(I95
I3
tp11
F193.11660986652043
s(I182
I1
tp12
F155.50191228394777
s(I206
I2
tp13
F148.0552026674159
s(I293
I2
tp14
F152.39813657049663
s(I218
I1
tp15
F171.2456337804437
s(I242
I2
tp16
F145.74750594434104
s(I84
I2
tp17
F145.30393429763208
s(I195
I1
tp18
F139.1122283319991
s(I282
I3
tp19
F181.14926891481258
s(I14
I1
tp20
F137.55947670919394
s(I38
I2
tp21
F160.87666449158596
s(I120
I2
tp22
F148.4587564567135
s(I223
I2
tp23
F160.66492777830126
s(I247
I1
tp24
F153.32406061413158
s(I50
I1
tp25
F162.90589645310502
s(I256
I1
tp26
F146.79303964131165
s(I3
I2
tp27
F157.2874071984033
s(I212
I3
tp28
F148.65206868821065
s(I102
I1
tp29
F151.15587417256432
s(I213
I2
tp30
F201.11274687944893
s(I55
I2
tp31
F156.2773509171387
s(I79
I1
tp32
F149.5444104819198
s(I248
I3
tp33
F134.23037222168287
s(I249
I2
tp34
F147.1904727339111
s(I91
I2
tp35
F182.04449264090533
s(I115
I1
tp36
F151.1628528373032
s(I202
I3
tp37
F151.76867718421218
s(I289
I1
tp38
F135.7119580660126
s(I44
I3
tp39
F146.15479098377037
s(I45
I2
tp40
F163.75113205096338
s(I254
I3
tp41
F147.93350795351185
s(I80
I3
tp42
F152.602005996129
s(I144
I1
tp43
F153.73805477262147
s(I156
I1
tp44
F148.62016819402913
s(I196
I1
tp45
F147.55487808796804
s(I283
I3
tp46
F154.44517470333736
s(I237
I1
tp47
F157.62269277095132
s(I232
I1
tp48
F145.9959102426146
s(I272
I2
tp49
F149.59986614940837
s(I273
I3
tp50
F143.92957150629303
s(I5
I1
tp51
F95.33717107883075
s(I64
I1
tp52
F144.2994076349249
s(I167
I3
tp53
F150.64291466205478
s(I278
I2
tp54
F143.59501776821241
s(I41
I1
tp55
F142.9256513373019
s(I116
I1
tp56
F148.7149903520783
s(I203
I3
tp57
F145.25047036028798
s(I290
I1
tp58
F127.88626235450303
s(I93
I1
tp59
F149.54041800569397
s(I267
I1
tp60
F159.63282297707838
s(I255
I3
tp61
F146.3786884629518
s(I192
I2
tp62
F137.58465486846782
s(I295
I2
tp63
F214.75199168196204
s(I193
I3
tp64
F158.67734163009007
s(I244
I2
tp65
F173.68426357215287
s(I284
I3
tp66
F131.51635341908454
s(I245
I3
tp67
F144.83157219957536
s(I198
I2
tp68
F141.3041100562461
s(I285
I2
tp69
F94.3739509713589
s(I210
I1
tp70
F149.46558412546102
s(I234
I2
tp71
F143.66926570115672
s(I76
I2
tp72
F154.30323527427814
s(I187
I1
tp73
F161.43394218395497
s(I274
I3
tp74
F151.6260290931779
s(I77
I3
tp75
F151.22182606347863
s(I6
I1
tp76
F154.7722891943222
s(I215
I2
tp77
F154.24280128634965
s(I239
I1
tp78
F139.49468262193335
s(I42
I1
tp79
F138.85316861541932
s(I66
I2
tp80
F151.8439685724293
s(I251
I2
tp81
F146.16058800992377
s(I19
I1
tp82
F64.92652620118372
s(I204
I3
tp83
F153.70957047936136
s(I94
I1
tp84
F148.03517862204546
s(I118
I2
tp85
F140.66418963373405
s(I268
I1
tp86
F144.27979469161477
s(I47
I2
tp87
F152.2927576409172
s(I71
I1
tp88
F145.79818622986124
s(I240
I3
tp89
F143.486554250992
s(I304
I1
tp90
F134.83704049473263
s(I83
I2
tp91
F158.59230738081652
s(I107
I1
tp92
F141.149598148213
s(I194
I3
tp93
F142.70291725478535
s(I281
I1
tp94
F148.09519923590418
s(I36
I3
tp95
F149.64625345825755
s(I69
I1
tp96
F147.16391477216814
s(I37
I2
tp97
F147.7004680490327
s(I246
I3
tp98
F145.58447530954064
s(I72
I3
tp99
F154.5652081241253
s(I221
I1
tp100
F143.8849021555228
s(I229
I2
tp101
F147.34694282821476
s(I188
I1
tp102
F146.65242774874892
s(I275
I3
tp103
F142.1456541517854
s(I78
I3
tp104
F158.24883723296662
s(I224
I1
tp105
F149.36682242100073
s(I201
I1
tp106
F144.2304704761715
s(I265
I3
tp107
F148.51953502895205
s(I20
I1
tp108
F130.4966202547872
s(I253
I1
tp109
F156.65952152532512
s(I56
I1
tp110
F161.14023192900027
s(I270
I2
tp111
F149.50342712203243
s(I168
I2
tp112
F148.6026003837704
s(I108
I1
tp113
F144.13683002054722
s(I195
I3
tp114
F142.97978575642927
s(I282
I1
tp115
F118.28438353503223
s(I306
I2
tp116
F34.41046860727044
s(I259
I1
tp117
F139.43674902915282
s(I247
I3
tp118
F139.9196339678815
s(I184
I2
tp119
F141.97304086634628
s(I287
I2
tp120
F139.25910591669646
s(I185
I3
tp121
F179.65305146325687
s(I236
I2
tp122
F167.79042196956343
s(I276
I3
tp123
F153.4707885905203
s(I237
I3
tp124
F163.86837177146214
s(I79
I3
tp125
F161.0075474121325
s(I190
I2
tp126
F154.16727492861176
s(I277
I2
tp127
F154.19413139368754
s(I16
I2
tp128
F163.7008815493281
s(I143
I1
tp129
F133.3733978247058
s(I17
I3
tp130
F186.5282023029031
s(I115
I3
tp131
F150.24995203673743
s(I202
I1
tp132
F138.1510514613784
s(I226
I2
tp133
F141.15178227585605
s(I68
I2
tp134
F160.36980727295895
s(I155
I2
tp135
F152.7528889659835
s(I266
I3
tp136
F152.51238760947737
s(I69
I3
tp137
F165.01367799436167
s(I254
I1
tp138
F149.74934090977152
s(I22
I2
tp139
F141.97828346665537
s(I104
I2
tp140
F142.39221376066416
s(I207
I2
tp141
F144.50661804231225
s(I231
I1
tp142
F153.83207198623177
s(I144
I3
tp143
F157.1231326828532
s(I105
I3
tp144
F150.0773440665879
s(I58
I2
tp145
F146.50524029424662
s(I243
I2
tp146
F142.3820325497296
s(I11
I1
tp147
F99.8868819099106
s(I196
I3
tp148
F145.1831672719662
s(I260
I1
tp149
F152.2860539929495
s(I39
I2
tp150
F160.34941614266097
s(I63
I1
tp151
F147.32953189016473
s(I232
I3
tp152
F146.5125065343694
s(I205
I1
tp153
F145.13650943795207
s(I233
I2
tp154
F153.60633894547556
s(I276
I1
tp155
F147.08854777554657
s(I186
I3
tp156
F146.5043607363002
s(I273
I1
tp157
F139.05712072725618
s(I238
I3
tp158
F143.15047867313282
s(I64
I3
tp159
F171.8384645426702
s(I128
I1
tp160
F146.20541622511286
s(I18
I3
tp161
F146.7892028311826
s(I116
I3
tp162
F158.58038251136009
s(I180
I1
tp163
F142.70020717761722
s(I267
I3
tp164
F144.33284934562988
s(I70
I3
tp165
F163.517340894199
s(I216
I1
tp166
F150.84117668455096
s(I106
I3
tp167
F143.7170052867402
s(I193
I1
tp168
F142.79582527794565
s(I257
I3
tp169
F152.729200031279
s(I12
I1
tp170
F109.09919693139791
s(I263
I3
tp171
F153.0382397240797
s(I245
I1
tp172
F152.17256314739737
s(I241
I1
tp173
F145.20637123405749
s(I48
I1
tp174
F149.1740062812011
s(I262
I2
tp175
F142.80099795772043
s(I187
I3
tp176
F144.9226382679775
s(I274
I1
tp177
F146.14383786137245
s(I298
I2
tp178
F140.44794028747788
s(I77
I1
tp179
F150.30621214683117
s(I141
I3
tp180
F168.48081476046332
s(I239
I3
tp181
F147.05563547118217
s(I279
I2
tp182
F146.4241417236998
s(I303
I1
tp183
F167.6734219754498
s(I19
I3
tp184
F158.4858435936024
s(I130
I2
tp185
F152.69251242968906
s(I228
I2
tp186
F147.56481734277367
s(I268
I3
tp187
F144.37688329601067
s(I229
I3
tp188
F141.78277902920172
s(I71
I3
tp189
F158.28643820503237
s(I182
I2
tp190
F170.66854044225286
s(I269
I2
tp191
F161.3577141684317
s(I8
I2
tp192
F166.16539731990085
s(I304
I3
tp193
F137.35988576367592
s(I9
I3
tp194
F146.1821175679069
s(I107
I3
tp195
F156.72261664886844
s(I194
I1
tp196
F140.35684766877353
s(I218
I2
tp197
F141.14256129166426
s(I305
I2
tp198
F125.77061532943405
s(I60
I2
tp199
F153.90996941133704
s(I258
I3
tp200
F153.13337388569633
s(I246
I1
tp201
F150.88957210034073
s(I14
I2
tp202
F163.15777557325922
s(I96
I2
tp203
F162.51917356057731
s(I199
I2
tp204
F144.54170326884895
s(I223
I1
tp205
F148.94727588570186
s(I50
I2
tp206
F151.00569538644746
s(I197
I2
tp207
F142.33625469747676
s(I235
I2
tp208
F163.24019858325352
s(I3
I1
tp209
F160.23747959150623
s(I188
I3
tp210
F143.35491154724576
s(I78
I1
tp211
F145.4069757096346
s(I102
I2
tp212
F150.28975896061604
s(I189
I2
tp213
F148.89735296972688
s(I55
I1
tp214
F152.72177331549582
s(I142
I3
tp215
F152.3453182541651
s(I224
I3
tp216
F145.26406136870042
s(I288
I1
tp217
F118.75045529469763
s(I67
I2
tp218
F162.12714812553665
s(I91
I1
tp219
F154.29136395889927
s(I265
I1
tp220
F167.41132950602665
s(I20
I3
tp221
F150.53583353878412
s(I21
I2
tp222
F142.28120158957802
s(I119
I2
tp223
F157.09214939097845
s(I230
I3
tp224
F142.683472582396
s(I56
I3
tp225
F155.1931064907012
s(I57
I2
tp226
F146.00045000283805
s(I10
I3
tp227
F158.72154331694162
s(I108
I3
tp228
F147.09153443340227
s(I81
I2
tp229
F161.82159976671295
s(I259
I3
tp230
F144.49411512357963
s(I225
I1
tp231
F156.768998216378
s(I208
I1
tp232
F152.6293981946065
s(I185
I1
tp233
F148.29141322147575
s(I4
I1
tp234
F63.41382993678342
s(I300
I2
tp235
F148.0387377147383
s(I301
I3
tp236
F-52.95677859886209
s(I40
I1
tp237
F151.51204383080253
s(I143
I3
tp238
F146.9664069634774
s(I17
I1
tp239
F126.31184005957421
s(I92
I1
tp240
F144.71924982882229
s(I266
I1
tp241
F139.221478034393
s(I290
I2
tp242
F175.5657315287334
s(I132
I2
tp243
F148.46173330151382
s(I231
I3
tp244
F149.60188021632408
s(I105
I1
tp245
F152.63623898593568
s(I271
I2
tp246
F138.57109963472266
s(I295
I1
tp247
F211.5554336598416
s(I11
I3
tp248
F148.16609319720592
s(I220
I2
tp249
F143.49112904987643
s(I307
I2
tp250
F173.4220630344471
s(I260
I3
tp251
F146.8440833534733
s(I221
I3
tp252
F139.88562609928704
s(I63
I3
tp253
F146.7422530393459
s(I261
I2
tp254
F142.85820605226147
s(I1
I3
tp255
F62.45454473489441
s(I186
I1
tp256
F141.53067252855428
s(I210
I2
tp257
F142.32662655108462
s(I297
I2
tp258
F197.42563818777987
s(I52
I2
tp259
F148.89308030224416
s(I53
I3
tp260
F166.95821152908715
s(I238
I1
tp261
F140.97578534653468
s(I6
I2
tp262
F151.0978148909056
s(I191
I2
tp263
F160.08988526996632
s(I215
I1
tp264
F137.95349221452602
s(I302
I3
tp265
F196.24942054162022
s(I128
I3
tp266
F156.88436749203356
s(I89
I3
tp267
F157.83479558450165
s(I18
I1
tp268
F113.63710910047111
s(I42
I2
tp269
F146.84445289538465
s(I129
I2
tp270
F152.70632167901704
s(I227
I2
tp271
F144.46213432962443
s(I251
I1
tp272
F152.1923005546673
s(I180
I3
tp273
F139.96595722196872
s(I70
I1
tp274
F150.10448459765456
s(I94
I2
tp275
F147.52885600657154
s(I23
I2
tp276
F144.82059906416478
s(I47
I1
tp277
F151.252335613307
s(I216
I3
tp278
F142.13710520862074
s(I106
I1
tp279
F129.5457260118588
s(I217
I2
tp280
F148.31937946823464
s(I59
I2
tp281
F141.77926832001157
s(I83
I1
tp282
F149.9803081059576
s(I257
I1
tp283
F137.08323995798932
s(I12
I3
tp284
F144.16726224799174
s(I65
I2
tp285
F153.39023085829209
s(I13
I2
tp286
F143.3048444046805
s(I222
I3
tp287
F145.9784002227869
s(I48
I3
tp288
F150.82599170034447
s(I209
I1
tp289
F143.38745681866334
s(I280
I1
tp290
F150.6338855385995
s(I54
I3
tp291
F147.01825413383608
s(I141
I1
tp292
F150.03575636616742
s(I200
I1
tp293
F145.7797033161558
s(I303
I3
tp294
F155.26027364238786
s(I90
I3
tp295
F196.16169258888533
s(I252
I1
tp296
F144.54481846904943
s(I229
I1
tp297
F142.776023619958
s(I293
I3
tp298
F135.1366649790022
s(I9
I1
tp299
F77.6667995120748
s(I117
I2
tp300
F157.9506628875335
s(I84
I1
tp301
F165.2365559694273
s(I258
I1
tp302
F147.47947420299536
s(I282
I2
tp303
F129.92283556914484
s(I120
I1
tp304
F141.82257862848712
s(I223
I3
tp305
F152.02324130114263
s(I263
I2
tp306
F157.4847248472799
s(I287
I1
tp307
F166.33408048962826
s(I3
I3
tp308
F99.89498496574555
s(I212
I2
tp309
F145.89029209087442
s(I299
I2
tp310
F188.7242717519207
s(I213
I3
tp311
F146.81776097699222
s(I55
I3
tp312
F196.11944714861647
s(I142
I1
tp313
F142.98880545461142
s(I248
I2
tp314
F141.73462237370995
s(I288
I3
tp315
F167.72303641730105
s(I249
I3
tp316
F150.58340552124335
s(I91
I3
tp317
F147.5017030849378
s(I202
I2
tp318
F144.42472566009462
s(I289
I2
tp319
F137.91473222064946
s(I44
I2
tp320
F146.00019465904484
s(I131
I2
tp321
F140.87217065755104
s(I155
I1
tp322
F159.52953671618684
s(I45
I3
tp323
F149.89260631051005
s(I230
I1
tp324
F147.19633460044784
s(I254
I2
tp325
F153.7499431829282
s(I80
I2
tp326
F153.3082806687885
s(I183
I2
tp327
F148.01473146850088
s(I207
I1
tp328
F176.6656246216923
s(I294
I3
tp329
F129.61550321372306
s(I81
I3
tp330
F144.04928957664887
s(I10
I1
tp331
F171.89167351949857
s(I219
I2
tp332
F154.85805891543433
s(I243
I1
tp333
F142.61841198006337
s(I15
I2
tp334
F156.41570376091948
s(I39
I1
tp335
F154.43766696902358
s(I208
I3
tp336
F168.70342646144857
s(I256
I2
tp337
F139.98212926313866
s(I272
I1
tp338
F161.74268724069668
s(I264
I1
tp339
F140.88058196020737
s(I51
I2
tp340
F152.3703926150177
s(I4
I3
tp341
F16.056964278529716
s(I5
I2
tp342
F162.1270158844709
s(I103
I2
tp343
F147.27695913554373
s(I214
I3
tp344
F165.07705948211543
s(I301
I1
tp345
F38.841683911640445
s(I40
I3
tp346
F140.30157345736208
s(I41
I2
tp347
F154.83452417706212
s(I250
I3
tp348
F145.80042229563753
s(I92
I3
tp349
F144.364657710008
s(I93
I2
tp350
F173.87179661930276
s(I46
I3
tp351
F151.5417266471031
s(I192
I1
tp352
F158.19720867402657
s(I295
I3
tp353
F217.8709472909248
s(I82
I3
tp354
F144.38902307175184
s(I156
I2
tp355
F148.29089042993803
s(I244
I1
tp356
F142.96778227241782
s(I284
I2
tp357
F163.87602317079984
s(I285
I3
tp358
F197.96179027281792
s(I1
I1
tp359
I-1
s(I76
I1
tp360
F155.32198212384725
s(I274
I2
tp361
F146.1792945379219
s(I53
I1
tp362
F146.4605076873512
s(I215
I3
tp363
F140.99677680749187
s(I302
I1
tp364
F134.5721253400185
s(I89
I1
tp365
F166.50379770421307
s(I279
I1
tp366
F152.75669571528735
s(I251
I3
tp367
F140.92759688537035
s(I204
I2
tp368
F148.23938656604395
s(I291
I2
tp369
F156.40260555395048
s(I205
I3
tp370
F146.23658891845915
s(I47
I3
tp371
F150.77451149789906
s(I240
I2
tp372
F144.76801541883808
s(I280
I3
tp373
F156.88716547241233
s(I241
I3
tp374
F144.81355248139448
s(I83
I3
tp375
F141.84077606264265
s(I194
I2
tp376
F147.51122337394588
s(I281
I2
tp377
F149.5454482963156
s(I36
I2
tp378
F151.8800422523222
s(I37
I3
tp379
F152.08136962893605
s(I222
I1
tp380
F141.32184973509828
s(I246
I2
tp381
F145.76449290472004
s(I72
I2
tp382
F154.58333937425687
s(I199
I1
tp383
F151.82445880680618
s(I286
I3
tp384
F171.88979216358538
s(I211
I2
tp385
F144.83051775856532
s(I235
I1
tp386
F149.17322809856208
s(I54
I1
tp387
F152.8591465688318
s(I78
I2
tp388
F136.17028364967254
s(I7
I2
tp389
F20.157645128938352
s(I200
I3
tp390
F141.44395662833313
s(I90
I1
tp391
F146.22215838171587
s(I201
I2
tp392
F157.93097130648664
s(I43
I2
tp393
F156.55153411242404
s(I67
I1
tp394
F154.9299470701705
s(I154
I3
tp395
F151.84451290768135
s(I252
I3
tp396
F144.27356846478418
s(I253
I2
tp397
F142.62865154799636
s(I95
I2
tp398
F146.403075008072
s(I119
I1
tp399
F157.29988090491665
s(I206
I3
tp400
F144.8396523602763
s(I293
I1
tp401
F192.76831280850135
s(I242
I3
tp402
F152.76476433034037
s(I84
I3
tp403
F148.4378623946688
s(I38
I3
tp404
F142.40763158528068
s(I120
I3
tp405
F164.26979362231248
s(I292
I2
tp406
F162.9440420719013
s(I184
I1
tp407
F141.16758317629828
s(I237
I2
tp408
F146.67151204774714
s(I236
I1
tp409
F142.00075008198533
s(I276
I2
tp410
F150.66502619633673
s(I277
I3
tp411
F146.06501580233544
s(I16
I1
tp412
F160.33728542900803
s(I249
I1
tp413
F141.74783906437273
s(I68
I1
tp414
F157.29156502379146
s(I155
I3
tp415
F156.32718537859265
s(I266
I2
tp416
F143.74329241789644
s(I45
I1
tp417
F160.94467759661134
s(I104
I1
tp418
F160.4196812126991
s(I207
I3
tp419
F141.93828676837478
s(I294
I1
tp420
F204.7019292559994
s(I144
I2
tp421
F179.90056568659813
s(I271
I1
tp422
F139.31838273160056
s(I243
I3
tp423
F148.43966898363811
s(I287
I3
tp424
F162.96093889552617
s(I196
I2
tp425
F140.71057253834616
s(I283
I2
tp426
F143.4118726589851
s(I307
I1
tp427
F-83.77085341214928
s(I197
I3
tp428
F155.7474808934747
s(I39
I3
tp429
F154.5120886725204
s(I232
I2
tp430
F146.85967924063888
s(I272
I3
tp431
F144.8615962570434
s(I233
I3
tp432
F138.04278429279591
s(I186
I2
tp433
F141.4954820095068
s(I273
I2
tp434
F148.88084835159057
s(I214
I1
tp435
F145.87332751284538
s(I238
I2
tp436
F146.11875003352185
s(I64
I2
tp437
F141.81879023941872
s(I167
I2
tp438
F156.92605892972017
s(I191
I1
tp439
F146.27527176380465
s(I278
I3
tp440
F141.78031662335778
s(I65
I3
tp441
F155.68276811365394
s(I250
I1
tp442
F151.22719121750447
s(I18
I2
tp443
F157.0301130301879
s(I116
I2
tp444
F146.9980793629833
s(I203
I2
tp445
F150.40329845612567
s(I227
I1
tp446
F147.34345897838875
s(I156
I3
tp447
F173.67526994465493
s(I117
I3
tp448
F162.1511997734109
s(I46
I1
tp449
F150.20881203485624
s(I70
I2
tp450
F154.82758650633258
s(I255
I2
tp451
F142.26076599188153
s(I23
I1
tp452
F86.78933686602323
s(I192
I3
tp453
F137.67629206595396
s(I82
I1
tp454
F143.05046603009404
s(I106
I2
tp455
F160.09553556596546
s(I193
I2
tp456
F141.33380576375544
s(I59
I1
tp457
F142.62838134690196
s(I244
I3
tp458
F143.0085210803611
s(I132
I1
tp459
F152.4649037570762
s(I245
I2
tp460
F153.986238189375
s(I198
I3
tp461
F155.4363763023144
s(I285
I1
tp462
F136.0160974459348
s(I213
I1
tp463
F154.7585066414261
s(I221
I2
tp464
F147.6587858854731
s(I234
I3
tp465
F154.68335902666752
s(I76
I3
tp466
F155.4022802065867
s(I77
I2
tp467
F144.83312594915725
s(I279
I3
tp468
F145.611161188627
s(I66
I3
tp469
F160.04047272547714
s(I228
I1
tp470
F157.60164375022106
s(I118
I3
tp471
F168.50079719868867
s(I268
I2
tp472
F144.6606705269756
s(I269
I3
tp473
F145.52562348224
s(I8
I1
tp474
F61.479477389946425
s(I304
I2
tp475
F180.05950607407115
s(I168
I1
tp476
F157.40938053218716
s(I305
I3
tp477
F-61.78870060163179
s(I60
I1
tp478
F149.11088088024093
s(I258
I2
tp479
F144.0712233309755
s(I37
I1
tp480
F168.1827515523277
s(I96
I1
tp481
F152.5676481489703
s(I199
I3
tp482
F149.87844192179202
s(I286
I1
tp483
F149.5272828451671
s(I263
I1
tp484
F147.21613566620874
s(I235
I3
tp485
F148.74407998411078
s(I188
I2
tp486
F172.78049656801903
s(I275
I2
tp487
F141.61748187595308
s(I299
I1
tp488
F76.62980436010838
s(I189
I3
tp489
F148.27143242545392
s(I142
I2
tp490
F149.67553173073497
s(I224
I2
tp491
F147.81223345553698
s(I264
I3
tp492
F141.85192481723578
s(I225
I3
tp493
F153.41587880830392
s(I67
I3
tp494
F152.92446568986378
s(I154
I1
tp495
F153.99036200599664
s(I265
I2
tp496
F150.72582134381764
s(I20
I2
tp497
F181.28599004959955
s(I131
I1
tp498
F152.04869006570914
s(I21
I3
tp499
F150.43879407661098
s(I119
I3
tp500
F158.2148669978075
s(I206
I1
tp501
F143.6452155400659
s(I230
I2
tp502
F153.42825292042616
s(I56
I2
tp503
F145.82840154231386
s(I183
I1
tp504
F146.04794956142916
s(I270
I3
tp505
F155.13306597780954
s(I57
I3
tp506
F171.09937192026536
s(I242
I1
tp507
F140.55124926217383
s(I10
I2
tp508
F62.038659837840655
s(I108
I2
tp509
F153.05112494281585
s(I195
I2
tp510
F137.20479709543568
s(I219
I1
tp511
F148.65470724245233
s(I306
I3
tp512
F-10.98690300024694
s(I38
I1
tp513
F153.28072878045688
s(I247
I2
tp514
F147.0858258037331
s(I15
I1
tp515
F113.97326217565703
s(I184
I3
tp516
F163.1003365765237
s(I197
I1
tp517
F156.94555379087137
s(I185
I2
tp518
F147.45104704780587
s(I205
I2
tp519
F179.2755360436813
s(I51
I1
tp520
F147.8644434090555
s(I236
I3
tp521
F156.9592970528784
s(I300
I1
tp522
F259.2965440749786
s(I79
I2
tp523
F148.02494380884724
s(I103
I1
tp524
F142.03987738608743
s(I190
I3
tp525
F147.0170281969371
s(I277
I1
tp526
F145.05417194530915
s(I16
I3
tp527
F157.49366782498518
s(I17
I2
tp528
F148.90718117876716
s(I115
I2
tp529
F150.59925876716412
s(I226
I3
tp530
F150.9158723888988
s(I68
I3
tp531
F157.84142641433064
s(I69
I2
tp532
F148.2241682506258
s(I22
I3
tp533
F158.6988340031291
s(I104
I3
tp534
F148.06517247817223
s(I105
I2
tp535
F151.992426519118
s(I271
I3
tp536
F159.14899263935627
s(I58
I3
tp537
F162.18351076728803
s(I81
I1
tp538
F153.61329868441774
s(I220
I1
tp539
F147.29817090790797
s(I307
I3
tp540
F140.01573922644437
s(I260
I2
tp541
F149.01674470828874
s(I261
I3
tp542
F155.9801630570835
s(I241
I2
tp543
F147.23992128386305
s(I233
I1
tp544
F139.2427088294276
s(I297
I3
tp545
F136.59990215635204
s(I52
I1
tp546
F143.40072437155914
s(I191
I3
tp547
F145.49173515089308
s(I278
I1
tp548
F161.41850124035804
s(I302
I2
tp549
F145.44209469490917
s(I128
I2
tp550
F147.56145032091496
s(I129
I3
tp551
F156.1852791163295
s(I227
I3
tp552
F151.549269466789
s(I180
I2
tp553
F166.53259733483583
s(I267
I2
tp554
F145.15971658195573
s(I291
I1
tp555
F207.52517962962938
s(I23
I3
tp556
F152.51444514970575
s(I216
I2
tp557
F137.84314292860714
s(I256
I3
tp558
F141.31496254527826
s(I217
I3
tp559
F139.90604101090142
s(I59
I3
tp560
F155.30538149728136
s(I257
I2
tp561
F140.6052772252267
s(I12
I2
tp562
F151.97479768460235
s(I13
I3
tp563
F168.5882807335823
s(I198
I1
tp564
F142.53061648368976
s(I222
I2
tp565
F153.78100317591395
s(I48
I2
tp566
F158.18771738360323
s(I262
I3
tp567
F148.4381978649456
s(I234
I1
tp568
F150.9357162378015
s(I187
I2
tp569
F141.43361081064816
s(I211
I1
tp570
F140.8983881676879
s(I298
I3
tp571
F153.41900091117634
s(I54
I2
tp572
F151.74416927039684
s(I141
I2
tp573
F142.21987910433455
s(I239
I2
tp574
F140.90717731845677
s(I7
I1
tp575
F130.34895580875835
s(I66
I1
tp576
F148.09358528045703
s(I90
I2
tp577
F154.22473908965057
s(I19
I2
tp578
F152.34332086305446
s(I43
I1
tp579
F150.65529023502143
s(I130
I3
tp580
F160.13662091734392
s(I228
I3
tp581
F147.8988531026569
s(I118
I1
tp582
F143.08125894765053
s(I292
I1
tp583
F124.92951393079318
s(I71
I2
tp584
F151.6702372894799
s(I95
I1
tp585
F148.2779555609821
s(I182
I3
tp586
F141.25834338355193
s(I269
I1
tp587
F146.23623147419593
s(I8
I3
tp588
F84.60907518857142
s(I9
I2
tp589
F157.969692406959
s(I107
I2
tp590
F146.9830086306578
s(I218
I3
tp591
F152.22428607606636
s(I305
I1
tp592
F183.68673102367885
s(I60
I3
tp593
F155.20434091754922
s(I65
I1
tp594
F156.4190749338658
s(I14
I3
tp595
F136.34184019316524
s(I96
I3
tp596
F154.73902942959145
s(I217
I1
tp597
F141.4090549926848
s(I225
I2
tp598
F146.45762692739393
s(I50
I3
tp599
F153.38497263059088
s(I212
I1
tp600
F144.81697911596592
s(I299
I3
tp601
F123.52181328385237
s(I102
I3
tp602
F151.71277807852803
s(I189
I1
tp603
F148.58304783034714
s(I248
I1
tp604
F147.54635473357996
s(I288
I2
tp605
F123.29752065806754
s(I289
I3
tp606
F163.50318583988218
s(I44
I1
tp607
F145.68372421983437
s(I131
I3
tp608
F151.96638690048238
s(I21
I1
tp609
F127.90591507313344
s(I80
I1
tp610
F147.96577899487812
s(I183
I3
tp611
F148.70363620256455
s(I270
I1
tp612
F142.4218155832183
s(I294
I2
tp613
F126.35469188346728
s(I57
I1
tp614
F144.23204983954088
s(I117
I1
tp615
F144.21969949256996
s(I219
I3
tp616
F146.9727777907068
s(I306
I1
tp617
F194.99497405766073
s(I259
I2
tp618
F162.01656562198457
s(I283
I1
tp619
F197.87762309025638
s(I15
I3
tp620
F155.82509003132623
s(I208
I2
tp621
F153.420086007558
s(I209
I3
tp622
F145.96177022914543
s(I51
I3
tp623
F147.35697098075536
s(I4
I2
tp624
F181.69174623973566
s(I300
I3
tp625
F246.255403759432
s(I5
I3
tp626
F59.125287446753845
s(I103
I3
tp627
F157.25470899915447
s(I190
I1
tp628
F146.35620004584027
s(I214
I2
tp629
F147.08020515262723
s(I301
I2
tp630
F179.91959886422768
s(I40
I2
tp631
F154.06544256432718
s(I143
I2
tp632
F161.27815376647223
s(I167
I1
tp633
F151.47675846018575
s(I41
I3
tp634
F144.81338369759567
s(I226
I1
tp635
F140.90794633546946
s(I250
I2
tp636
F151.43343764250494
s(I92
I2
tp637
F146.0918069286536
s(I203
I1
tp638
F142.6060230642008
s(I290
I3
tp639
F171.32378361862382
s(I132
I3
tp640
F159.17099373258304
s(I93
I3
tp641
F141.67072109615808
s(I22
I1
tp642
F153.60898905978246
s(I46
I2
tp643
F168.25648609427955
s(I231
I2
tp644
F154.09652128159422
s(I255
I1
tp645
F142.25400132416814
s(I168
I3
tp646
F154.33854663313193
s(I58
I1
tp647
F178.28017372620062
s(I82
I2
tp648
F165.70855272604248
s(I11
I2
tp649
F153.95435454529
s(I220
I3
tp650
F145.46435637882172
s(I284
I1
tp651
F138.56472292789275
s(I63
I2
tp652
F163.52970150089715
s(I261
I1
tp653
F142.47957571838327
s(I264
I2
tp654
F149.70638153870195
s(I1
I2
tp655
F165.12687643678476
s(I209
I2
tp656
F148.0204940337931
s(I210
I3
tp657
F168.6791199698268
s(I297
I1
tp658
F124.34173438914459
s(I52
I3
tp659
F159.438600515627
s(I53
I2
tp660
F149.83523371280296
s(I6
I3
tp661
F149.45235084774535
s(I89
I2
tp662
F163.73712562460233
s(I42
I3
tp663
F152.7707120602867
s(I129
I1
tp664
F142.79448636623187
s(I204
I1
tp665
F147.29295212603594
s(I291
I3
tp666
F128.83729515725184
s(I94
I3
tp667
F147.71089316450943
s(I240
I1
tp668
F174.9394180275795
s(I280
I2
tp669
F138.98081725602083
s(I281
I3
tp670
F150.46181192636394
s(I36
I1
tp671
F149.07372959175046
s(I13
I1
tp672
F81.4419171261333
s(I72
I1
tp673
F167.24633075549158
s(I262
I1
tp674
F143.41197106610173
s(I286
I2
tp675
F130.30070357554405
s(I211
I3
tp676
F155.4764914505538
s(I298
I1
tp677
F252.2174018788099
s(I275
I1
tp678
F151.98170804615046
s.