(dp0
(I7
I3
tp1
F140.0399205592746
s(I200
I2
tp2
F-215.88229581806903
s(I303
I2
tp3
F-144.9425817638738
s(I201
I3
tp4
F-195.53733412856687
s(I43
I3
tp5
F-144.6913706372531
s(I130
I1
tp6
F250.80490556750672
s(I154
I2
tp7
F26.374223758944602
s(I252
I2
tp8
F-215.6623911098064
s(I292
I3
tp9
F-243.83981213693377
s(I253
I3
tp10
F-209.4077830681893
s(I95
I3
tp11
F20.13536942370125
s(I182
I1
tp12
F222.79036617386623
s(I206
I2
tp13
F-187.39851809117891
s(I293
I2
tp14
F-218.71896296141577
s(I218
I1
tp15
F-333.8923785677327
s(I242
I2
tp16
F-199.51270323317294
s(I84
I2
tp17
F48.946056043995895
s(I195
I1
tp18
F-301.8507961258405
s(I282
I3
tp19
F-202.98861332241242
s(I14
I1
tp20
F70.12699399046606
s(I38
I2
tp21
F-118.41059228144672
s(I120
I2
tp22
F67.76347558423866
s(I223
I2
tp23
F-211.78692521774548
s(I247
I1
tp24
F-383.04934648489615
s(I50
I1
tp25
F-2.931785343625151
s(I256
I1
tp26
F-308.6376101375793
s(I3
I2
tp27
F58.326902467743736
s(I212
I3
tp28
F-194.68564570949778
s(I102
I1
tp29
F240.40151144517515
s(I276
I1
tp30
F-274.252831903353
s(I55
I2
tp31
F-6.574805700746779
s(I79
I1
tp32
F245.50855051840475
s(I248
I3
tp33
F-206.26998642909
s(I249
I2
tp34
F-190.57542070781847
s(I91
I2
tp35
F95.46973628049403
s(I115
I1
tp36
F309.06253299122733
s(I202
I3
tp37
F-191.02922645309854
s(I289
I1
tp38
F-314.32474156648794
s(I44
I3
tp39
F-95.56773077809014
s(I45
I2
tp40
F91.1203526575757
s(I254
I3
tp41
F-221.63882391272065
s(I80
I3
tp42
F65.29226493413421
s(I144
I1
tp43
F337.93587327484227
s(I156
I1
tp44
F250.94325469990827
s(I196
I1
tp45
F-289.781410723832
s(I283
I3
tp46
F-267.7511930366115
s(I237
I1
tp47
F-343.7964870341219
s(I232
I1
tp48
F-366.67964366552275
s(I209
I1
tp49
F-313.5646737900026
s(I273
I3
tp50
F-231.32590290809023
s(I5
I1
tp51
F41.95784824789447
s(I64
I1
tp52
F169.4929419278894
s(I167
I3
tp53
F-21.877131382621915
s(I278
I2
tp54
F-228.9163784265478
s(I41
I1
tp55
F272.580168705858
s(I116
I1
tp56
F348.0548334343546
s(I203
I3
tp57
F-195.9189910678915
s(I290
I1
tp58
F194.63063936214553
s(I156
I2
tp59
F0.39446919556520044
s(I267
I1
tp60
F-306.61839360201094
s(I255
I3
tp61
F-215.08948431413404
s(I192
I2
tp62
F-218.77836207013536
s(I295
I2
tp63
F-253.34658119768082
s(I193
I3
tp64
F-216.98630981589702
s(I244
I2
tp65
F-223.35582372614485
s(I284
I3
tp66
F-236.19449414405125
s(I245
I3
tp67
F-199.95026515154817
s(I198
I2
tp68
F-223.5889495448723
s(I285
I2
tp69
F-217.08386926831213
s(I210
I1
tp70
F-330.13506508058356
s(I234
I2
tp71
F-211.06363473644498
s(I76
I2
tp72
F-138.1467365953884
s(I187
I1
tp73
F-253.41484472001318
s(I274
I3
tp74
F-191.68291502862752
s(I77
I3
tp75
F-2.2891949329046213
s(I6
I1
tp76
F389.10299594325505
s(I215
I2
tp77
F-224.40279487982812
s(I239
I1
tp78
F-343.20095537469865
s(I42
I1
tp79
F140.4855503975448
s(I66
I2
tp80
F-19.838759142578073
s(I251
I2
tp81
F-188.48090131864313
s(I19
I1
tp82
F179.415808095771
s(I204
I3
tp83
F-216.80102296003335
s(I94
I1
tp84
F130.7411040877605
s(I118
I2
tp85
F25.645514156190707
s(I268
I1
tp86
F-337.5472972094147
s(I47
I2
tp87
F8.039728993167596
s(I71
I1
tp88
F283.92057594660554
s(I240
I3
tp89
F-216.61468618489664
s(I304
I1
tp90
F-492.95958618803
s(I83
I2
tp91
F49.34525944232176
s(I107
I1
tp92
F279.9661091690496
s(I194
I3
tp93
F-198.20339369086093
s(I281
I1
tp94
F-295.3175992165705
s(I36
I3
tp95
F12.957322366068077
s(I69
I1
tp96
F240.7940522708878
s(I37
I2
tp97
F-48.17244161762756
s(I246
I3
tp98
F-191.90997605820678
s(I72
I3
tp99
F94.46181573343198
s(I221
I1
tp100
F-323.0432564616871
s(I229
I2
tp101
F-230.98267383140092
s(I188
I1
tp102
F-200.37866486047574
s(I275
I3
tp103
F-197.56768359089912
s(I78
I3
tp104
F13.815058152660356
s(I224
I1
tp105
F-336.2997409792294
s(I201
I1
tp106
F-298.42205651920585
s(I265
I3
tp107
F-225.97116781976578
s(I20
I1
tp108
F251.1514955784216
s(I253
I1
tp109
F-296.1580647299329
s(I56
I1
tp110
F342.00321350281865
s(I270
I2
tp111
F-227.93716655341723
s(I105
I1
tp112
F249.91318978396433
s(I108
I1
tp113
F162.69023729430302
s(I195
I3
tp114
F-209.75341483516092
s(I282
I1
tp115
F-425.59286682403456
s(I306
I2
tp116
F-166.74531096421316
s(I259
I1
tp117
F-358.21795874358645
s(I247
I3
tp118
F-180.88549657765702
s(I184
I2
tp119
F-204.65950718367563
s(I287
I2
tp120
F-216.82752128684677
s(I185
I3
tp121
F-197.29447851556225
s(I236
I2
tp122
F-204.1886580835282
s(I276
I3
tp123
F-199.9005208234568
s(I237
I3
tp124
F-187.65799872695084
s(I79
I3
tp125
F8.605061249539073
s(I190
I2
tp126
F-202.7795844006866
s(I277
I2
tp127
F-218.52381908636713
s(I16
I2
tp128
F26.691683686797997
s(I143
I1
tp129
F224.3374772202071
s(I17
I3
tp130
F146.54461688792216
s(I115
I3
tp131
F26.950277791817875
s(I202
I1
tp132
F-287.5326727455726
s(I226
I2
tp133
F-216.25429831322967
s(I68
I2
tp134
F-154.79782890485157
s(I155
I2
tp135
F50.68523220777843
s(I266
I3
tp136
F-196.13960816706987
s(I69
I3
tp137
F42.35521352296482
s(I254
I1
tp138
F-330.7938249224041
s(I22
I2
tp139
F25.60698753637027
s(I104
I2
tp140
F78.16602159258142
s(I207
I2
tp141
F-216.32551321726316
s(I231
I1
tp142
F-343.5693396299015
s(I144
I3
tp143
F50.33505697058986
s(I105
I3
tp144
F-32.15417626343484
s(I58
I2
tp145
F-51.46776049045565
s(I243
I2
tp146
F-185.73666851979593
s(I11
I1
tp147
F346.6625023991486
s(I196
I3
tp148
F-192.69677003339734
s(I260
I1
tp149
F-320.0681913808197
s(I39
I2
tp150
F-129.10095698252803
s(I63
I1
tp151
F290.85719652060055
s(I232
I3
tp152
F-241.82628194720544
s(I205
I1
tp153
F-379.9812221182952
s(I233
I2
tp154
F-192.1250800359383
s(I213
I2
tp155
F-191.3097671120929
s(I186
I3
tp156
F-218.23064617018343
s(I273
I1
tp157
F-314.5169685008033
s(I238
I3
tp158
F-195.91340877911324
s(I64
I3
tp159
F-48.367797133386844
s(I65
I2
tp160
F-41.25186091084465
s(I18
I3
tp161
F55.10885829274646
s(I116
I3
tp162
F13.64877479172823
s(I180
I1
tp163
F-338.378642800572
s(I267
I3
tp164
F-199.21400972257473
s(I70
I3
tp165
F10.608485289334013
s(I216
I1
tp166
F-306.98953392888933
s(I106
I3
tp167
F19.4470630968062
s(I193
I1
tp168
F-298.19362114393516
s(I257
I3
tp169
F-215.04391464794392
s(I12
I1
tp170
F196.49118752342838
s(I245
I1
tp171
F-356.8772596803161
s(I241
I1
tp172
F-359.9339856216757
s(I48
I1
tp173
F261.7824323971125
s(I262
I2
tp174
F-218.44484914095307
s(I187
I3
tp175
F-205.90827344891235
s(I274
I1
tp176
F-307.21353678364886
s(I298
I2
tp177
F-743.8019024551899
s(I77
I1
tp178
F344.02893174273737
s(I141
I3
tp179
F-45.32121524824961
s(I239
I3
tp180
F-189.31359917386118
s(I279
I2
tp181
F-220.15336372079085
s(I303
I1
tp182
F-498.63394902852144
s(I19
I3
tp183
F172.49046259618848
s(I130
I2
tp184
F-36.62053574967268
s(I228
I2
tp185
F-215.91008821787057
s(I268
I3
tp186
F-204.3364751431848
s(I229
I3
tp187
F-202.98556218832405
s(I71
I3
tp188
F79.61216858632878
s(I182
I2
tp189
F-17.517534112433715
s(I269
I2
tp190
F-223.2570065858797
s(I8
I2
tp191
F347.61448327459334
s(I304
I3
tp192
F-200.18469218161138
s(I9
I3
tp193
F261.74980768582793
s(I107
I3
tp194
F11.014562927182205
s(I194
I1
tp195
F-293.2595916684799
s(I218
I2
tp196
F-194.1200584928243
s(I305
I2
tp197
F-211.31854388471822
s(I60
I2
tp198
F-119.1483266142659
s(I258
I3
tp199
F-193.0162267034395
s(I246
I1
tp200
F-338.57837871860045
s(I14
I2
tp201
F44.66990215763093
s(I96
I2
tp202
F-52.461045989056984
s(I199
I2
tp203
F-193.13995331384945
s(I223
I1
tp204
F-326.89310489488815
s(I50
I2
tp205
F-150.21150636984345
s(I197
I2
tp206
F-221.36337816878273
s(I235
I2
tp207
F-187.7397511055512
s(I3
I1
tp208
F115.80479569158277
s(I188
I3
tp209
F-210.09373589480506
s(I78
I1
tp210
F249.46659550549765
s(I102
I2
tp211
F-82.22090436807123
s(I189
I2
tp212
F-213.25661425869237
s(I55
I1
tp213
F270.81566313872383
s(I142
I3
tp214
F-70.15285708557211
s(I224
I3
tp215
F-208.4572989164132
s(I225
I2
tp216
F-204.41587231869846
s(I67
I2
tp217
F71.5012082720856
s(I91
I1
tp218
F192.59229971473758
s(I265
I1
tp219
F-307.4280436892818
s(I20
I3
tp220
F103.6619125695981
s(I21
I2
tp221
F140.16382504791642
s(I119
I2
tp222
F89.18078847951111
s(I230
I3
tp223
F-219.8952610855908
s(I237
I2
tp224
F-216.75981710245597
s(I56
I3
tp225
F11.199678082747074
s(I57
I2
tp226
F-26.075019222339314
s(I10
I3
tp227
F135.321467766103
s(I108
I3
tp228
F44.17890262972195
s(I81
I2
tp229
F88.13820895453976
s(I259
I3
tp230
F-192.2275209804689
s(I288
I2
tp231
F-242.4992246802194
s(I208
I1
tp232
F-328.1799978378224
s(I185
I1
tp233
F-214.26703018783655
s(I4
I1
tp234
F156.57868464451985
s(I300
I2
tp235
F-171.82943908049856
s(I301
I3
tp236
F-407.238991723307
s(I40
I1
tp237
F198.12009023670558
s(I143
I3
tp238
F137.47736700288198
s(I17
I1
tp239
F174.38041049641183
s(I92
I1
tp240
F258.4897616870006
s(I266
I1
tp241
F-311.4746880059786
s(I290
I2
tp242
F-1354.2738548112723
s(I132
I2
tp243
F-20.076188618386812
s(I231
I3
tp244
F-215.7045206850015
s(I168
I2
tp245
F231.17275776422014
s(I271
I2
tp246
F-236.0195818336448
s(I295
I1
tp247
F-636.615399454057
s(I11
I3
tp248
F247.96901212166767
s(I220
I2
tp249
F-195.40776314675637
s(I307
I2
tp250
F-304.24619359312044
s(I260
I3
tp251
F-192.21521578710434
s(I221
I3
tp252
F-216.59011504697767
s(I63
I3
tp253
F48.42349158941151
s(I261
I2
tp254
F-210.20188367716557
s(I1
I3
tp255
F204.51171433163202
s(I186
I1
tp256
F-279.1784008183842
s(I210
I2
tp257
F-221.49482496078298
s(I297
I2
tp258
F-198.94121969553416
s(I52
I2
tp259
F-79.65941884376258
s(I53
I3
tp260
F37.98977096171062
s(I238
I1
tp261
F-333.1182415027062
s(I6
I2
tp262
F315.78861248244164
s(I191
I2
tp263
F-187.50799126681062
s(I215
I1
tp264
F-361.22855818213674
s(I302
I3
tp265
F-179.34069473813847
s(I128
I3
tp266
F1.3305095620752994
s(I89
I3
tp267
F-99.8931142781538
s(I18
I1
tp268
F228.2563651426542
s(I42
I2
tp269
F114.80085821007972
s(I129
I2
tp270
F94.69603003905607
s(I227
I2
tp271
F-215.36635374812602
s(I251
I1
tp272
F-320.94611818726236
s(I180
I3
tp273
F-180.69349644318353
s(I70
I1
tp274
F287.5344366196001
s(I94
I2
tp275
F13.052738744096718
s(I23
I2
tp276
F87.54487396018575
s(I47
I1
tp277
F270.1916472046447
s(I216
I3
tp278
F-195.6948892645477
s(I106
I1
tp279
F225.2306495170381
s(I280
I1
tp280
F-320.88104570000274
s(I59
I2
tp281
F-42.91854726369224
s(I83
I1
tp282
F307.02910296391553
s(I257
I1
tp283
F-306.11688328962106
s(I12
I3
tp284
F108.4884943646058
s(I128
I1
tp285
F205.63260794971956
s(I13
I2
tp286
F18.346907597484122
s(I222
I3
tp287
F-241.71423607189763
s(I48
I3
tp288
F-46.95293689702644
s(I272
I2
tp289
F-202.29436597351662
s(I217
I2
tp290
F-195.8241230831689
s(I54
I3
tp291
F-40.38109389681065
s(I141
I1
tp292
F246.56093825123583
s(I200
I1
tp293
F-341.6987474284017
s(I303
I3
tp294
F-465.74828633983765
s(I90
I3
tp295
F-85.60688865393219
s(I252
I1
tp296
F-321.90519494029263
s(I229
I1
tp297
F-314.7937894420538
s(I293
I3
tp298
F-624.8752965532062
s(I9
I1
tp299
F70.918381176617
s(I117
I2
tp300
F138.4316428555519
s(I84
I1
tp301
F308.69753749057304
s(I258
I1
tp302
F-321.15616778493643
s(I282
I2
tp303
F-313.120224922762
s(I120
I1
tp304
F203.4522419348164
s(I223
I3
tp305
F-191.50964419782798
s(I263
I2
tp306
F-210.42333860470825
s(I287
I1
tp307
F-306.312736167397
s(I3
I3
tp308
F104.54368087458064
s(I212
I2
tp309
F-209.93988940115463
s(I299
I2
tp310
F-272.7860004941543
s(I213
I3
tp311
F-226.86984718763182
s(I55
I3
tp312
F-30.49397311974503
s(I142
I1
tp313
F171.67422883255554
s(I248
I2
tp314
F-194.33492088534965
s(I288
I3
tp315
F-252.26528974755036
s(I249
I3
tp316
F-218.8198421763526
s(I91
I3
tp317
F-77.835240281532
s(I202
I2
tp318
F-221.5497425492455
s(I289
I2
tp319
F-367.13520236688413
s(I44
I2
tp320
F-131.31021752070262
s(I131
I2
tp321
F99.41453049609179
s(I155
I1
tp322
F218.34463447395558
s(I45
I3
tp323
F-26.68920967644308
s(I230
I1
tp324
F-329.502809238093
s(I254
I2
tp325
F-191.67649477580704
s(I80
I2
tp326
F-45.170453919617614
s(I183
I2
tp327
F-177.45496412593695
s(I207
I1
tp328
F-332.0734475384412
s(I294
I3
tp329
F-168.16846403484965
s(I81
I3
tp330
F30.40027919884161
s(I10
I1
tp331
F158.38059178934634
s(I219
I2
tp332
F-201.84840348456555
s(I243
I1
tp333
F-315.86717124553485
s(I15
I2
tp334
F103.96988074236427
s(I39
I1
tp335
F124.02071902967926
s(I208
I3
tp336
F-189.69366231144625
s(I256
I2
tp337
F-197.40005117059474
s(I272
I1
tp338
F-344.24293352896075
s(I201
I2
tp339
F-230.2239492613921
s(I51
I2
tp340
F57.63311682428585
s(I4
I3
tp341
F165.07925267192053
s(I5
I2
tp342
F172.23707440360482
s(I103
I2
tp343
F-87.64313225568449
s(I214
I3
tp344
F-197.26420510173685
s(I301
I1
tp345
F-383.2091442550922
s(I40
I3
tp346
F-134.83150539897994
s(I41
I2
tp347
F10.152820789204835
s(I250
I3
tp348
F-224.23501817255888
s(I92
I3
tp349
F25.2378482640264
s(I93
I2
tp350
F15.055459867210207
s(I46
I3
tp351
F-57.63261056097861
s(I192
I1
tp352
F-295.41281721070163
s(I295
I3
tp353
F-677.9185031162191
s(I82
I3
tp354
F-75.08734982271675
s(I93
I1
tp355
F229.8200951104578
s(I244
I1
tp356
F-347.37525190309236
s(I284
I2
tp357
F-170.2071339391259
s(I285
I3
tp358
F-237.9414163862307
s(I76
I1
tp359
F228.17216002505845
s(I274
I2
tp360
F-221.89569431990137
s(I53
I1
tp361
F201.60237715237395
s(I215
I3
tp362
F-194.14749491868946
s(I302
I1
tp363
F-368.3653631590246
s(I89
I1
tp364
F157.3987955568167
s(I279
I1
tp365
F-322.3515309549616
s(I251
I3
tp366
F-215.23876803960812
s(I204
I2
tp367
F-197.341330098899
s(I291
I2
tp368
F-346.2027205225191
s(I205
I3
tp369
F-212.81912294539765
s(I47
I3
tp370
F-46.083720341276276
s(I240
I2
tp371
F-182.83999548241744
s(I280
I3
tp372
F-202.77466144421905
s(I241
I3
tp373
F-198.71008634946898
s(I83
I3
tp374
F-125.25678040984369
s(I194
I2
tp375
F-229.4279618405091
s(I281
I2
tp376
F-185.66579297051456
s(I36
I2
tp377
F-3.4820503133878375
s(I37
I3
tp378
F-45.98275323882528
s(I222
I1
tp379
F-312.48278798221435
s(I246
I2
tp380
F-215.09800044278285
s(I72
I2
tp381
F13.753891614924466
s(I199
I1
tp382
F-365.1725884260821
s(I286
I3
tp383
F-221.93297276079917
s(I211
I2
tp384
F-192.50544512766106
s(I235
I1
tp385
F-340.6995252445321
s(I54
I1
tp386
F203.17862912110286
s(I78
I2
tp387
F88.45467541327864
s(I7
I2
tp388
F148.6194059116541
s(I200
I3
tp389
F-196.39961227492728
s(I90
I1
tp390
F289.77950248835134
s(I264
I1
tp391
F-325.95975173347904
s(I43
I2
tp392
F-49.85864086785226
s(I67
I1
tp393
F195.89365911547736
s(I154
I3
tp394
F8.558752956326222
s(I252
I3
tp395
F-194.43769053000926
s(I253
I2
tp396
F-200.77435417829037
s(I95
I2
tp397
F-116.47221395364447
s(I119
I1
tp398
F296.5185958947612
s(I206
I3
tp399
F-220.0972184309908
s(I293
I1
tp400
F-279.0363067209941
s(I242
I3
tp401
F-209.39617122146024
s(I84
I3
tp402
F145.11010614970687
s(I38
I3
tp403
F-114.93620223769754
s(I120
I3
tp404
F35.69011333699919
s(I292
I2
tp405
F-198.87641824153457
s(I184
I1
tp406
F-201.0342067946034
s(I287
I3
tp407
F-541.223860218803
s(I236
I1
tp408
F-338.4637924337526
s(I276
I2
tp409
F-214.56290171838168
s(I277
I3
tp410
F-196.35043183399466
s(I16
I1
tp411
F110.74085525511006
s(I249
I1
tp412
F-296.2970384661468
s(I68
I1
tp413
F188.46532248660068
s(I155
I3
tp414
F-14.874969286282877
s(I266
I2
tp415
F-206.2179383463776
s(I45
I1
tp416
F229.5829872247686
s(I104
I1
tp417
F337.90233575615105
s(I207
I3
tp418
F-183.82366369907834
s(I294
I1
tp419
F-280.2878503948015
s(I144
I2
tp420
F3.690578993506115
s(I271
I1
tp421
F-324.75525944229537
s(I243
I3
tp422
F-238.38145904026464
s(I196
I2
tp423
F-209.93316883338497
s(I283
I2
tp424
F-331.1964449438988
s(I307
I1
tp425
F-374.17446435014364
s(I197
I3
tp426
F-189.6561118603505
s(I39
I3
tp427
F-61.505425413838196
s(I232
I2
tp428
F-196.72188015248346
s(I272
I3
tp429
F-244.03069758511302
s(I233
I3
tp430
F-235.0269581885568
s(I186
I2
tp431
F-202.2285838231155
s(I273
I2
tp432
F-185.13348553332006
s(I214
I1
tp433
F-352.96562972508343
s(I238
I2
tp434
F-214.16764918927777
s(I64
I2
tp435
F-28.551023095173193
s(I167
I2
tp436
F134.5000767451573
s(I191
I1
tp437
F-284.6361731519619
s(I278
I3
tp438
F-192.55070495692604
s(I65
I3
tp439
F-13.92105884479625
s(I250
I1
tp440
F-296.2140534449563
s(I18
I2
tp441
F210.00012788518526
s(I116
I2
tp442
F-68.64186186739703
s(I203
I2
tp443
F-231.48897893067826
s(I227
I1
tp444
F-317.75371381147636
s(I156
I3
tp445
F-37.335858624239115
s(I117
I3
tp446
F18.435898107746326
s(I46
I1
tp447
F159.03122966639867
s(I70
I2
tp448
F-24.721806771454606
s(I255
I2
tp449
F-198.50006992645405
s(I23
I1
tp450
F219.1311100197426
s(I192
I3
tp451
F-205.31680923050766
s(I82
I1
tp452
F98.4937388985085
s(I106
I2
tp453
F117.25648431355597
s(I193
I2
tp454
F-207.57703259080964
s(I59
I1
tp455
F243.9808554523945
s(I244
I3
tp456
F-201.93528111450905
s(I69
I2
tp457
F-56.84865075253229
s(I245
I2
tp458
F-227.88714418850117
s(I198
I3
tp459
F-191.14782336478618
s(I285
I1
tp460
F-475.97999673710655
s(I213
I1
tp461
F-283.0979752350698
s(I284
I1
tp462
F-266.1345711190733
s(I234
I3
tp463
F-202.41729697124194
s(I76
I3
tp464
F-52.67188163514673
s(I77
I2
tp465
F-100.90015489354252
s(I279
I3
tp466
F-196.81040630340647
s(I66
I3
tp467
F-29.145104637198845
s(I228
I1
tp468
F-321.6791631874246
s(I118
I3
tp469
F25.84820781131664
s(I268
I2
tp470
F-207.56613302186395
s(I269
I3
tp471
F-203.04163339760547
s(I8
I1
tp472
F362.00240759850135
s(I304
I2
tp473
F-429.32435759003386
s(I105
I2
tp474
F29.372519003861456
s(I305
I3
tp475
F-343.5706229505524
s(I60
I1
tp476
F237.46456236326256
s(I258
I2
tp477
F-211.122463996556
s(I37
I1
tp478
F171.9845409079118
s(I96
I1
tp479
F196.45127594819053
s(I199
I3
tp480
F-216.17471155694713
s(I286
I1
tp481
F-299.10808798788656
s(I263
I1
tp482
F-337.9720540618642
s(I235
I3
tp483
F-207.98703357067825
s(I188
I2
tp484
F-200.56812561561037
s(I275
I2
tp485
F-219.91342035397312
s(I299
I1
tp486
F-349.4368903556733
s(I189
I3
tp487
F-192.54002032793306
s(I142
I2
tp488
F19.178936769618687
s(I224
I2
tp489
F-208.08657052763118
s(I264
I3
tp490
F-188.78464893893494
s(I225
I3
tp491
F-193.63669048226035
s(I67
I3
tp492
F6.136095489520262
s(I154
I1
tp493
F297.7700990945522
s(I265
I2
tp494
F-205.5934940868729
s(I20
I2
tp495
F202.69537756144217
s(I131
I1
tp496
F285.86093900639037
s(I21
I3
tp497
F152.4961434273188
s(I119
I3
tp498
F92.05892502180433
s(I206
I1
tp499
F-323.19773639540995
s(I230
I2
tp500
F-195.94447850793023
s(I56
I2
tp501
F54.119784830579064
s(I183
I1
tp502
F-106.89609916562944
s(I270
I3
tp503
F-207.59068889319516
s(I57
I3
tp504
F-34.76503614920093
s(I242
I1
tp505
F-305.16645202886605
s(I10
I2
tp506
F70.5612676422512
s(I108
I2
tp507
F-30.581432789399937
s(I195
I2
tp508
F-198.32860603052336
s(I219
I1
tp509
F-334.52198179370924
s(I306
I3
tp510
F-308.0796535228155
s(I38
I1
tp511
F312.01643205235337
s(I247
I2
tp512
F-211.6299197745363
s(I15
I1
tp513
F164.80704623069238
s(I184
I3
tp514
F-202.87173940968088
s(I197
I1
tp515
F-339.2517998670064
s(I185
I2
tp516
F-213.9316366738979
s(I205
I2
tp517
F-196.55038809288956
s(I51
I1
tp518
F332.17179072613663
s(I236
I3
tp519
F-219.1266222904373
s(I300
I1
tp520
F-354.81752854223686
s(I79
I2
tp521
F184.56858208348973
s(I103
I1
tp522
F161.82203266424222
s(I190
I3
tp523
F-209.52611818597543
s(I277
I1
tp524
F-279.51446333234344
s(I16
I3
tp525
F2.8781298019450006
s(I17
I2
tp526
F86.2668735512663
s(I115
I2
tp527
F-148.90804058630127
s(I226
I3
tp528
F-208.1375459170035
s(I68
I3
tp529
F-19.88554971043618
s(I132
I1
tp530
F200.80988280447934
s(I22
I3
tp531
F65.03219952015269
s(I104
I3
tp532
F54.50415767127873
s(I168
I1
tp533
F290.2727449631668
s(I271
I3
tp534
F-195.81315345959436
s(I58
I3
tp535
F132.12265151104452
s(I81
I1
tp536
F290.8211608802751
s(I220
I1
tp537
F-348.27781121542125
s(I307
I3
tp538
F-202.07432284908015
s(I260
I2
tp539
F-215.93306291165732
s(I261
I3
tp540
F-198.35711693783725
s(I241
I2
tp541
F-248.1330703516896
s(I233
I1
tp542
F-330.66702311441463
s(I297
I3
tp543
F-282.7707155044338
s(I52
I1
tp544
F245.0904060298432
s(I191
I3
tp545
F-225.8204107020348
s(I278
I1
tp546
F-328.10759638113575
s(I302
I2
tp547
F-313.05159763931783
s(I128
I2
tp548
F-8.541542538789109
s(I129
I3
tp549
F-30.444617598944404
s(I227
I3
tp550
F-199.83219470382227
s(I180
I2
tp551
F-214.07508087809984
s(I267
I2
tp552
F-231.91702814488
s(I291
I1
tp553
F-300.1398051103852
s(I23
I3
tp554
F173.06634567437493
s(I216
I2
tp555
F-210.75037259438906
s(I256
I3
tp556
F-245.4775139464636
s(I217
I3
tp557
F-215.9110235395563
s(I59
I3
tp558
F-12.440057499519092
s(I257
I2
tp559
F-199.80363909344035
s(I12
I2
tp560
F123.12409201328904
s(I13
I3
tp561
F4.24418711044175
s(I198
I1
tp562
F-299.8595034727827
s(I222
I2
tp563
F-189.90280380610184
s(I48
I2
tp564
F0.08078140751288387
s(I262
I3
tp565
F-197.77190392313815
s(I234
I1
tp566
F-376.4317171054845
s(I187
I2
tp567
F-194.30157239901334
s(I211
I1
tp568
F-329.27240603987366
s(I298
I3
tp569
F-359.93320391497883
s(I54
I2
tp570
F-90.39145893545215
s(I141
I2
tp571
F40.32422000096367
s(I239
I2
tp572
F-214.6260472174348
s(I7
I1
tp573
F64.78571917614208
s(I66
I1
tp574
F236.4558138412255
s(I90
I2
tp575
F-9.565956870038416
s(I19
I2
tp576
F42.250704194805785
s(I43
I1
tp577
F223.10345956339063
s(I130
I3
tp578
F-48.00204323287373
s(I228
I3
tp579
F-188.26367993244412
s(I118
I1
tp580
F371.98183922843447
s(I292
I1
tp581
F-429.80992243649587
s(I71
I2
tp582
F19.58247449784473
s(I95
I1
tp583
F147.86245802566606
s(I182
I3
tp584
F-28.988134571399932
s(I269
I1
tp585
F-284.9711440088141
s(I8
I3
tp586
F301.716506553073
s(I9
I2
tp587
F103.23627699584566
s(I107
I2
tp588
F134.36397098119943
s(I218
I3
tp589
F-221.64428476984438
s(I305
I1
tp590
F-341.5283772652308
s(I60
I3
tp591
F68.07316111831851
s(I65
I1
tp592
F326.8834024621936
s(I14
I3
tp593
F41.590295047035035
s(I96
I3
tp594
F-43.46156975520132
s(I280
I2
tp595
F-213.50212838298913
s(I263
I3
tp596
F-195.03226937719032
s(I50
I3
tp597
F-121.99717066491986
s(I212
I1
tp598
F-292.23209908554077
s(I299
I3
tp599
F-225.05689671321747
s(I288
I1
tp600
F-427.71745750236926
s(I102
I3
tp601
F-62.21785325275317
s(I189
I1
tp602
F-266.54097673637455
s(I248
I1
tp603
F-269.22323134695426
s(I225
I1
tp604
F-305.7144495123188
s(I289
I3
tp605
F-223.60702618178874
s(I44
I1
tp606
F194.43674059683084
s(I131
I3
tp607
F-18.026718425783454
s(I21
I1
tp608
F205.4207902571471
s(I80
I1
tp609
F328.4055910506783
s(I183
I3
tp610
F-203.47327310892686
s(I270
I1
tp611
F-334.0998734002004
s(I294
I2
tp612
F-258.0116488108406
s(I57
I1
tp613
F246.02616882734551
s(I117
I1
tp614
F249.60355349370354
s(I219
I3
tp615
F-217.3158962972241
s(I306
I1
tp616
F-326.46051307394526
s(I259
I2
tp617
F-202.4796194170525
s(I283
I1
tp618
F-244.4113624732321
s(I15
I3
tp619
F81.07650153479007
s(I208
I2
tp620
F-227.46562350643686
s(I209
I3
tp621
F-217.61566833404515
s(I51
I3
tp622
F-64.00839177127209
s(I4
I2
tp623
F117.0360390215942
s(I300
I3
tp624
F-334.443085066287
s(I5
I3
tp625
F110.55693810212937
s(I103
I3
tp626
F-8.045179992942991
s(I190
I1
tp627
F-203.80156778707212
s(I214
I2
tp628
F-236.747686314683
s(I301
I2
tp629
F-168.80385806361932
s(I40
I2
tp630
F-116.53860551203532
s(I143
I2
tp631
F96.38614508785274
s(I167
I1
tp632
F217.48157514503296
s(I41
I3
tp633
F56.749254328266446
s(I226
I1
tp634
F-263.5473243839185
s(I250
I2
tp635
F-191.41830792539218
s(I92
I2
tp636
F-63.28145423906922
s(I203
I1
tp637
F-350.82336300098257
s(I290
I3
tp638
F-470.2018709589115
s(I132
I3
tp639
F87.93500679825061
s(I93
I3
tp640
F-96.96123903985996
s(I22
I1
tp641
F124.80350516152373
s(I46
I2
tp642
F4.543823477139444
s(I231
I2
tp643
F-193.3167697015536
s(I255
I1
tp644
F-319.6074721554639
s(I168
I3
tp645
F78.52125183968673
s(I58
I1
tp646
F249.7993402503073
s(I82
I2
tp647
F-139.4960022116008
s(I11
I2
tp648
F290.028386795604
s(I220
I3
tp649
F-234.05551375721302
s(I221
I2
tp650
F-196.22445707886396
s(I63
I2
tp651
F-18.641472484808986
s(I261
I1
tp652
F-339.8865043390053
s(I264
I2
tp653
F-210.6680197936418
s(I1
I2
tp654
F210.87646297505935
s(I209
I2
tp655
F-185.990832093602
s(I210
I3
tp656
F-196.7283822355049
s(I297
I1
tp657
F-277.58737575330144
s(I52
I3
tp658
F-77.75704437546023
s(I53
I2
tp659
F30.925070330922203
s(I6
I3
tp660
F298.78774407929745
s(I89
I2
tp661
F-82.40409229088766
s(I42
I3
tp662
F35.2320168289739
s(I129
I1
tp663
F259.415332708719
s(I204
I1
tp664
F-344.40187063193935
s(I291
I3
tp665
F-168.6695436387113
s(I94
I3
tp666
F-73.23980620915962
s(I240
I1
tp667
F-324.4003917238518
s(I217
I1
tp668
F-318.7183439149404
s(I281
I3
tp669
F-209.85819616026325
s(I36
I1
tp670
F242.27264582058396
s(I13
I1
tp671
F63.896684121221654
s(I72
I1
tp672
F298.0248916955141
s(I262
I1
tp673
F-345.9395608462693
s(I286
I2
tp674
F-414.72722148069187
s(I211
I3
tp675
F-214.70084172060172
s(I298
I1
tp676
F-568.786860031629
s(I275
I1
tp677
F-288.838800748439
s.