(dp0
(I7
I3
tp1
F168.52183286727143
s(I200
I2
tp2
F-2156.932483322614
s(I303
I2
tp3
F-685.8911690654783
s(I201
I3
tp4
F268.8574435237998
s(I43
I3
tp5
F294.74748087977133
s(I130
I1
tp6
F1309.513931737801
s(I154
I2
tp7
F-777.2582733317879
s(I252
I2
tp8
F-830.3576716329858
s(I292
I3
tp9
F977.3078007578727
s(I253
I3
tp10
F1572.995736637401
s(I95
I3
tp11
F1542.6091051399073
s(I182
I1
tp12
F1776.2184729399455
s(I206
I2
tp13
F-1627.0243526128259
s(I293
I2
tp14
F-826.0199182726363
s(I218
I1
tp15
F674.7922688096274
s(I242
I2
tp16
F-1275.6541035711111
s(I84
I2
tp17
F-1680.982784251533
s(I195
I1
tp18
F1572.9793976339204
s(I282
I3
tp19
F1361.534707203616
s(I14
I1
tp20
F753.9849816190977
s(I38
I2
tp21
F-947.2660109508765
s(I120
I2
tp22
F-985.5267677229097
s(I223
I2
tp23
F-1798.4103431940594
s(I247
I1
tp24
F1313.8260223774491
s(I50
I1
tp25
F800.0964588712525
s(I256
I1
tp26
F2084.261140431385
s(I3
I2
tp27
F-248.99951751376733
s(I212
I3
tp28
F623.9818475627487
s(I102
I1
tp29
F1092.2944358088196
s(I213
I2
tp30
F-1573.5709898653065
s(I55
I2
tp31
F-269.7437209776621
s(I79
I1
tp32
F842.5636075061078
s(I248
I3
tp33
F1415.1659814811662
s(I249
I2
tp34
F-1132.7509782869588
s(I91
I2
tp35
F-1114.3308303930278
s(I115
I1
tp36
F2489.850498866776
s(I202
I3
tp37
F1117.0229727488163
s(I289
I1
tp38
F17.85791547201544
s(I44
I3
tp39
F2814.8338787349057
s(I45
I2
tp40
F-891.8878597244066
s(I254
I3
tp41
F1078.404722412525
s(I80
I3
tp42
F429.1552457976223
s(I81
I2
tp43
F-378.0030351837221
s(I93
I2
tp44
F-612.2309817441121
s(I196
I1
tp45
F1274.7659006312601
s(I283
I3
tp46
F678.7120971302817
s(I300
I2
tp47
F-413.8215223612398
s(I232
I1
tp48
F1240.5709806144173
s(I272
I2
tp49
F-2990.3518178765403
s(I273
I3
tp50
F1380.1542611956359
s(I5
I1
tp51
F1097.3419994651426
s(I64
I1
tp52
F2598.321890431342
s(I167
I3
tp53
F1267.801622762065
s(I278
I2
tp54
F-1856.156519739854
s(I41
I1
tp55
F2059.9438850555307
s(I116
I1
tp56
F2676.502132041898
s(I203
I3
tp57
F1358.4913326207095
s(I290
I1
tp58
F599.8212731174517
s(I93
I1
tp59
F1262.3924937448169
s(I267
I1
tp60
F475.1454001335043
s(I255
I3
tp61
F986.7551145714217
s(I192
I2
tp62
F-1498.6931472366716
s(I295
I2
tp63
F-358.53634037309064
s(I193
I3
tp64
F1441.155506404425
s(I244
I2
tp65
F-879.7839071000095
s(I284
I3
tp66
F363.66088476546156
s(I245
I3
tp67
F1024.5693233906204
s(I198
I2
tp68
F-652.3435845505709
s(I285
I2
tp69
F-656.1037109114186
s(I210
I1
tp70
F668.8457293340349
s(I234
I2
tp71
F-1480.5696856592856
s(I76
I2
tp72
F-1510.5699751691643
s(I187
I1
tp73
F760.4678569530782
s(I274
I3
tp74
F1036.6997287744744
s(I77
I3
tp75
F1121.0374456211343
s(I6
I1
tp76
F1992.3238659895867
s(I215
I2
tp77
F-1025.5415503541753
s(I239
I1
tp78
F599.1726702636719
s(I42
I1
tp79
F1708.8789510606332
s(I66
I2
tp80
F-1030.6231039253091
s(I251
I2
tp81
F-1508.5530779251217
s(I19
I1
tp82
F1200.3617837394422
s(I204
I3
tp83
F276.8805817335609
s(I94
I1
tp84
F972.4277065905912
s(I118
I2
tp85
F-1849.8791981521338
s(I205
I2
tp86
F-2147.361937416439
s(I47
I2
tp87
F-1658.2461649469433
s(I71
I1
tp88
F1269.9985946070685
s(I240
I3
tp89
F975.2692516559749
s(I241
I2
tp90
F-2089.2961530645907
s(I83
I2
tp91
F-2448.7801372675544
s(I107
I1
tp92
F2218.9677730030976
s(I194
I3
tp93
F577.1465738675065
s(I281
I1
tp94
F970.7668167757653
s(I36
I3
tp95
F669.5681083066195
s(I132
I2
tp96
F-1922.6716305866366
s(I37
I2
tp97
F-2675.7361284919302
s(I246
I3
tp98
F-341.01214523743545
s(I72
I3
tp99
F1035.7602754375064
s(I284
I2
tp100
F-1673.592470801008
s(I292
I1
tp101
F657.0324693154204
s(I188
I1
tp102
F1962.4525186620335
s(I275
I3
tp103
F1239.5800242326848
s(I78
I3
tp104
F942.8807355784033
s(I224
I1
tp105
F1421.0054629405754
s(I264
I2
tp106
F-570.5688953263323
s(I265
I3
tp107
F545.7582495518224
s(I20
I1
tp108
F2336.725040584793
s(I253
I1
tp109
F1021.81453751683
s(I56
I1
tp110
F2045.156917032561
s(I270
I2
tp111
F-1327.4844066005521
s(I168
I2
tp112
F-1067.4957498909755
s(I108
I1
tp113
F926.0735472723733
s(I195
I3
tp114
F1012.5744151216494
s(I282
I1
tp115
F609.3363032100726
s(I306
I2
tp116
F-436.0323548517366
s(I259
I1
tp117
F780.7228052760576
s(I247
I3
tp118
F721.863292596261
s(I184
I2
tp119
F-763.1931120578221
s(I287
I2
tp120
F-592.7651356036804
s(I185
I3
tp121
F1693.431522733616
s(I236
I2
tp122
F-1614.6360230208406
s(I276
I3
tp123
F601.3070191791492
s(I237
I3
tp124
F1228.8363891791419
s(I79
I3
tp125
F1660.0821653386179
s(I190
I2
tp126
F-1412.2904552019784
s(I277
I2
tp127
F-382.6077167794341
s(I16
I2
tp128
F-808.9873296121845
s(I143
I1
tp129
F1763.8214085131358
s(I17
I3
tp130
F872.2494548429142
s(I115
I3
tp131
F1487.731709235137
s(I202
I1
tp132
F623.7786087191021
s(I226
I2
tp133
F-2253.258400264037
s(I68
I2
tp134
F-1230.519664631585
s(I155
I2
tp135
F-1114.877978481674
s(I266
I3
tp136
F503.2980818070013
s(I69
I3
tp137
F293.9053999483064
s(I254
I1
tp138
F1001.1534608656547
s(I22
I2
tp139
F-2464.8817600723305
s(I104
I2
tp140
F-1580.8990058254003
s(I207
I2
tp141
F-1978.6753836473333
s(I231
I1
tp142
F412.9327531090687
s(I144
I3
tp143
F646.6878153840149
s(I105
I3
tp144
F1179.4518065803163
s(I58
I2
tp145
F-1234.3968831007164
s(I243
I2
tp146
F-657.4557552734715
s(I11
I1
tp147
F1444.6452347046175
s(I196
I3
tp148
F1583.8343213919459
s(I197
I2
tp149
F-1814.9202935321578
s(I39
I2
tp150
F-2860.629163302154
s(I63
I1
tp151
F1021.2238772747762
s(I232
I3
tp152
F1160.401960503322
s(I268
I2
tp153
F-1109.0197141357216
s(I233
I2
tp154
F-1493.1046910926752
s(I276
I1
tp155
F986.9287730514006
s(I186
I3
tp156
F2838.285839144007
s(I273
I1
tp157
F353.3187947568325
s(I238
I3
tp158
F922.4974386374993
s(I64
I3
tp159
F1234.2723176457953
s(I65
I2
tp160
F-559.4990393591305
s(I18
I3
tp161
F551.9064563992603
s(I116
I3
tp162
F1530.0830909912502
s(I117
I2
tp163
F-1198.1122294265047
s(I267
I3
tp164
F482.7310738378198
s(I70
I3
tp165
F417.1633793572753
s(I216
I1
tp166
F1971.437630459043
s(I106
I3
tp167
F1719.5615103888304
s(I193
I1
tp168
F884.7621441589695
s(I257
I3
tp169
F401.2247516612011
s(I12
I1
tp170
F847.7806585842195
s(I263
I3
tp171
F720.1410254016712
s(I245
I1
tp172
F926.6490742187566
s(I241
I1
tp173
F918.0939909475186
s(I48
I1
tp174
F767.1659859733512
s(I262
I2
tp175
F-982.7111216386486
s(I187
I3
tp176
F930.2677157098542
s(I274
I1
tp177
F1367.656305965658
s(I298
I2
tp178
F-196.64237809676746
s(I77
I1
tp179
F1001.768067384148
s(I141
I3
tp180
F1387.759632621544
s(I239
I3
tp181
F882.1088123988254
s(I279
I2
tp182
F-693.8766321001197
s(I303
I1
tp183
F685.3729148630135
s(I19
I3
tp184
F1392.7582888301026
s(I130
I2
tp185
F-1010.2622590802472
s(I228
I2
tp186
F-1287.6878145372891
s(I268
I3
tp187
F470.52401511895323
s(I229
I3
tp188
F878.1795119338965
s(I71
I3
tp189
F2252.026383984672
s(I182
I2
tp190
F-1145.367440535077
s(I269
I2
tp191
F-535.493676875794
s(I8
I2
tp192
F-373.2384133125245
s(I304
I3
tp193
F1499.8758384396735
s(I9
I3
tp194
F942.8279351273754
s(I107
I3
tp195
F855.7936430776754
s(I194
I1
tp196
F618.6668020210648
s(I218
I2
tp197
F-1285.9266934459026
s(I305
I2
tp198
F-727.5668728003408
s(I60
I2
tp199
F-2202.95892821075
s(I258
I3
tp200
F1441.9308497947682
s(I246
I1
tp201
F437.13277570079447
s(I14
I2
tp202
F-1327.3950819970491
s(I96
I2
tp203
F-2461.4023128211975
s(I199
I2
tp204
F-1263.1079997071608
s(I223
I1
tp205
F1015.5270463765833
s(I50
I2
tp206
F-1572.8167376122506
s(I260
I1
tp207
F926.7346308767553
s(I235
I2
tp208
F-1185.3319328820567
s(I3
I1
tp209
F896.6724688015918
s(I188
I3
tp210
F733.5842044627755
s(I300
I1
tp211
F539.304775850102
s(I78
I1
tp212
F2386.3890411834896
s(I102
I2
tp213
F-1907.7941079300217
s(I189
I2
tp214
F-1055.7424317503842
s(I55
I1
tp215
F1946.5501512970545
s(I142
I3
tp216
F2486.5687271791885
s(I224
I3
tp217
F1996.0324193590225
s(I288
I1
tp218
F383.04961092243275
s(I67
I2
tp219
F-899.2411814939474
s(I91
I1
tp220
F1154.0217415010595
s(I265
I1
tp221
F1125.5980048358704
s(I20
I3
tp222
F1840.222423333352
s(I21
I2
tp223
F-734.3177100747009
s(I119
I2
tp224
F-2828.5772000449115
s(I230
I3
tp225
F1207.610143444758
s(I56
I3
tp226
F598.6579712863522
s(I57
I2
tp227
F-1091.6149205909967
s(I10
I3
tp228
F1589.8434771322702
s(I108
I3
tp229
F1905.5229485133168
s(I144
I1
tp230
F1022.9121679722818
s(I259
I3
tp231
F1672.1017098314433
s(I225
I1
tp232
F1841.2007094454148
s(I208
I1
tp233
F722.7420975219909
s(I185
I1
tp234
F1401.7263705194441
s(I4
I1
tp235
F1947.1281836564567
s(I237
I1
tp236
F687.524444888132
s(I301
I3
tp237
F732.6041042847868
s(I40
I1
tp238
F1147.3767508936837
s(I143
I3
tp239
F1228.2193995827606
s(I17
I1
tp240
F1857.9418639509008
s(I92
I1
tp241
F1636.5093894468403
s(I266
I1
tp242
F-78.07461152770499
s(I290
I2
tp243
F-1277.184625287557
s(I69
I1
tp244
F816.3275215637162
s(I231
I3
tp245
F1750.738852063202
s(I105
I1
tp246
F1954.0679221294565
s(I271
I2
tp247
F-34.2617941414062
s(I295
I1
tp248
F1470.8247808066933
s(I11
I3
tp249
F842.1004032047908
s(I220
I2
tp250
F-1795.3277879128161
s(I307
I2
tp251
F-1620.2778837019684
s(I260
I3
tp252
F107.28480411536816
s(I221
I3
tp253
F1619.0188807548686
s(I63
I3
tp254
F1435.318800464179
s(I261
I2
tp255
F-1152.3052842298912
s(I1
I3
tp256
F1195.7978289901987
s(I186
I1
tp257
F1699.8183982997803
s(I210
I2
tp258
F-1921.6070643097792
s(I297
I2
tp259
F-353.3756842136531
s(I52
I2
tp260
F-1305.5849084071604
s(I53
I3
tp261
F1713.9340384761033
s(I238
I1
tp262
F1282.6149858143199
s(I6
I2
tp263
F-563.4921066250887
s(I191
I2
tp264
F-1644.679212056606
s(I215
I1
tp265
F816.3010300686686
s(I302
I3
tp266
F1123.299954585555
s(I128
I3
tp267
F-142.00149776930863
s(I89
I3
tp268
F635.5612169424364
s(I18
I1
tp269
F467.24937145139324
s(I42
I2
tp270
F-2193.84762225274
s(I129
I2
tp271
F-1371.7553590013713
s(I227
I2
tp272
F-1355.1442187523744
s(I251
I1
tp273
F1154.4712272980491
s(I180
I3
tp274
F1161.1813818229098
s(I70
I1
tp275
F1709.46901623287
s(I94
I2
tp276
F-2312.6502889705816
s(I23
I2
tp277
F-560.7991377246258
s(I47
I1
tp278
F609.9116921006156
s(I216
I3
tp279
F892.0829077196289
s(I106
I1
tp280
F2368.667927795268
s(I280
I1
tp281
F1188.77967937979
s(I59
I2
tp282
F-977.4565927748462
s(I83
I1
tp283
F1043.3951635938076
s(I257
I1
tp284
F992.4031148829765
s(I12
I3
tp285
F1188.0747471269713
s(I128
I1
tp286
F1704.960759606724
s(I13
I2
tp287
F-1832.6152983842387
s(I222
I3
tp288
F362.9359048024561
s(I48
I3
tp289
F1232.8409467268932
s(I209
I1
tp290
F694.2238705998628
s(I217
I2
tp291
F-1330.7284118921411
s(I54
I3
tp292
F2276.4173241502854
s(I141
I1
tp293
F1063.2887373686276
s(I200
I1
tp294
F1518.0321183283268
s(I303
I3
tp295
F761.5895376287757
s(I90
I3
tp296
F1371.8094873223572
s(I252
I1
tp297
F1345.764595212638
s(I292
I2
tp298
F-2181.6116172008637
s(I293
I3
tp299
F481.81022354030904
s(I9
I1
tp300
F1512.8225228806114
s(I180
I1
tp301
F1423.6863225324228
s(I84
I1
tp302
F1395.2957158959146
s(I258
I1
tp303
F801.8412532995303
s(I282
I2
tp304
F-1148.1784904342662
s(I120
I1
tp305
F783.0387107234819
s(I223
I3
tp306
F967.4905684330913
s(I263
I2
tp307
F-1633.507487202894
s(I287
I1
tp308
F1601.9046826448111
s(I3
I3
tp309
F2673.395990895607
s(I212
I2
tp310
F-2363.6922536765364
s(I299
I2
tp311
F-821.1778483538724
s(I213
I3
tp312
F144.02179056753704
s(I55
I3
tp313
F1425.4618339943888
s(I142
I1
tp314
F1552.3560428155565
s(I248
I2
tp315
F-1190.877760831219
s(I288
I3
tp316
F-630.6024622308438
s(I249
I3
tp317
F535.8246864185004
s(I91
I3
tp318
F1853.1124724457698
s(I202
I2
tp319
F-1224.1516832552543
s(I289
I2
tp320
F-2254.130219560573
s(I44
I2
tp321
F-765.6808505422098
s(I131
I2
tp322
F-1884.4239436241248
s(I155
I1
tp323
F1899.5479496933924
s(I45
I3
tp324
F1643.443580085903
s(I230
I1
tp325
F528.5562700582539
s(I254
I2
tp326
F-2210.3257525054755
s(I80
I2
tp327
F-1306.0464688095253
s(I183
I2
tp328
F-1561.215363293323
s(I207
I1
tp329
F508.02731304280377
s(I294
I3
tp330
F866.6868982906353
s(I81
I3
tp331
F1694.5853274580495
s(I10
I1
tp332
F1524.024948075675
s(I219
I2
tp333
F-1935.1784107496824
s(I243
I1
tp334
F1201.519367346055
s(I15
I2
tp335
F-2423.092655928386
s(I39
I1
tp336
F1154.8799973860139
s(I208
I3
tp337
F1226.1214162606368
s(I256
I2
tp338
F-1823.895933957537
s(I209
I2
tp339
F-1748.358846604497
s(I264
I1
tp340
F1007.0550724239208
s(I51
I2
tp341
F-1707.365668266307
s(I4
I3
tp342
F1572.7007699350306
s(I5
I2
tp343
F-970.6731885878505
s(I103
I2
tp344
F-762.7189966057285
s(I214
I3
tp345
F957.0366068125945
s(I301
I1
tp346
F541.505807654515
s(I40
I3
tp347
F536.2405836419805
s(I41
I2
tp348
F-1694.3898527422753
s(I250
I3
tp349
F409.70666873161724
s(I92
I3
tp350
F2219.1160413587445
s(I156
I1
tp351
F1263.1993430922164
s(I46
I3
tp352
F635.9451504269106
s(I192
I1
tp353
F1007.5589752327257
s(I295
I3
tp354
F929.1534758906436
s(I82
I3
tp355
F1806.475466981708
s(I156
I2
tp356
F-690.714811866959
s(I244
I1
tp357
F1488.0672078709513
s(I221
I1
tp358
F1091.8641197208829
s(I285
I3
tp359
F574.8531217415854
s(I1
I1
tp360
F1694.9720950732765
s(I76
I1
tp361
F1409.6065010507014
s(I274
I2
tp362
F-1058.30922539945
s(I53
I1
tp363
F604.4054451265695
s(I215
I3
tp364
F2013.4809442442527
s(I302
I1
tp365
F552.0854684319451
s(I89
I1
tp366
F1324.9008291716875
s(I279
I1
tp367
F1672.4885540939313
s(I251
I3
tp368
F849.1654926576268
s(I204
I2
tp369
F-2502.609837427923
s(I291
I2
tp370
F-1524.8250481448028
s(I205
I3
tp371
F347.2398052432623
s(I47
I3
tp372
F1507.8559582793405
s(I240
I2
tp373
F-1785.7649243138776
s(I280
I3
tp374
F881.9070979800721
s(I241
I3
tp375
F637.1363555592117
s(I83
I3
tp376
F952.0470481811878
s(I194
I2
tp377
F-1139.1366645844757
s(I281
I2
tp378
F-1025.2710917184738
s(I36
I2
tp379
F-2408.247977234449
s(I37
I3
tp380
F254.86730200978252
s(I222
I1
tp381
F900.4135885980909
s(I246
I2
tp382
F-2619.0934488833477
s(I72
I2
tp383
F-2377.388581478331
s(I199
I1
tp384
F702.4887444021094
s(I286
I3
tp385
F585.3944228809564
s(I211
I2
tp386
F-1000.6220376879892
s(I235
I1
tp387
F375.5812135556689
s(I54
I1
tp388
F1769.5978546341416
s(I78
I2
tp389
F-1404.9281010884997
s(I7
I2
tp390
F-1781.4198725435965
s(I200
I3
tp391
F795.785344536208
s(I90
I1
tp392
F1364.6341738794927
s(I201
I2
tp393
F-1698.2200330110736
s(I43
I2
tp394
F-1384.4157027873505
s(I67
I1
tp395
F893.6796748852825
s(I154
I3
tp396
F630.1137682300309
s(I252
I3
tp397
F1110.5558802624787
s(I253
I2
tp398
F-1158.2253960070864
s(I95
I2
tp399
F-1183.4333792292398
s(I119
I1
tp400
F850.6042772004338
s(I206
I3
tp401
F1974.5947329084513
s(I293
I1
tp402
F8.825014590157636
s(I242
I3
tp403
F1521.855028664297
s(I84
I3
tp404
F580.6074702173349
s(I38
I3
tp405
F150.62261316710504
s(I120
I3
tp406
F1042.2179956559462
s(I229
I1
tp407
F833.3509818603486
s(I184
I1
tp408
F1677.885438853895
s(I287
I3
tp409
F1079.140366265802
s(I236
I1
tp410
F575.2381794370082
s(I213
I1
tp411
F503.9814587145199
s(I277
I3
tp412
F1288.9447465892986
s(I16
I1
tp413
F1095.6585897740056
s(I249
I1
tp414
F1204.1065042839716
s(I68
I1
tp415
F641.9430838113847
s(I155
I3
tp416
F1187.1400834875237
s(I266
I2
tp417
F-1743.5629938686932
s(I45
I1
tp418
F1141.8222171411521
s(I104
I1
tp419
F982.7865544520185
s(I207
I3
tp420
F1174.653080032989
s(I294
I1
tp421
F610.4671570198346
s(I144
I2
tp422
F-555.2287497464018
s(I271
I1
tp423
F2993.6440602691355
s(I243
I3
tp424
F980.7001435555013
s(I196
I2
tp425
F-1817.9143532442313
s(I283
I2
tp426
F-1016.277726305942
s(I307
I1
tp427
F350.08364027973744
s(I197
I3
tp428
F961.3914880662473
s(I39
I3
tp429
F1289.8425019456845
s(I232
I2
tp430
F-1145.6265726064332
s(I272
I3
tp431
F1646.9955548840908
s(I233
I3
tp432
F963.6817970730158
s(I186
I2
tp433
F-401.2548985396652
s(I273
I2
tp434
F-2312.716835602122
s(I214
I1
tp435
F1255.4271368681395
s(I238
I2
tp436
F-1145.9690099331297
s(I64
I2
tp437
F-684.8413426168006
s(I167
I2
tp438
F-435.65485249789805
s(I191
I1
tp439
F1115.5482341996478
s(I278
I3
tp440
F1252.5887597472913
s(I65
I3
tp441
F1200.8348639312792
s(I250
I1
tp442
F1363.3798467902236
s(I18
I2
tp443
F-2629.2055514234135
s(I116
I2
tp444
F-1383.0880698903597
s(I203
I2
tp445
F-974.7103197994744
s(I227
I1
tp446
F886.0927591229132
s(I156
I3
tp447
F1966.683192955329
s(I117
I3
tp448
F1391.2008742837459
s(I46
I1
tp449
F1937.7444134051689
s(I70
I2
tp450
F-2261.1695095891846
s(I255
I2
tp451
F-1630.5417471250505
s(I23
I1
tp452
F1271.7275098549183
s(I192
I3
tp453
F1348.8559825188688
s(I82
I1
tp454
F887.1641582615093
s(I106
I2
tp455
F-495.61343371987374
s(I193
I2
tp456
F-1230.3458647968196
s(I59
I1
tp457
F2591.2190858574
s(I244
I3
tp458
F999.3124547905871
s(I132
I1
tp459
F724.3481920937543
s(I245
I2
tp460
F-1542.9875530470772
s(I198
I3
tp461
F1048.809788418112
s(I285
I1
tp462
F931.7184121373311
s(I276
I2
tp463
F-1191.3067874825608
s(I221
I2
tp464
F-1258.5158351902178
s(I234
I3
tp465
F1132.3502214151945
s(I76
I3
tp466
F508.79972123469133
s(I77
I2
tp467
F-891.9992120714769
s(I279
I3
tp468
F490.0447817063076
s(I66
I3
tp469
F930.388203977956
s(I228
I1
tp470
F1164.5924308276194
s(I118
I3
tp471
F1941.2846437703793
s(I205
I1
tp472
F804.5302724658337
s(I269
I3
tp473
F1874.2161107951606
s(I8
I1
tp474
F1281.7204375805231
s(I304
I2
tp475
F-611.5304632086315
s(I105
I2
tp476
F-1046.4453056126151
s(I305
I3
tp477
F551.6205011400871
s(I60
I1
tp478
F119.00112413727717
s(I258
I2
tp479
F-1116.9925925875227
s(I37
I1
tp480
F1221.5526814874067
s(I96
I1
tp481
F1567.3452636491495
s(I199
I3
tp482
F1306.3822063457033
s(I286
I1
tp483
F1277.6922316753662
s(I263
I1
tp484
F1156.2576766709383
s(I235
I3
tp485
F1010.2792992026957
s(I188
I2
tp486
F-901.7277330999483
s(I275
I2
tp487
F-1075.2336183521325
s(I299
I1
tp488
F408.6901559392004
s(I189
I3
tp489
F1909.18388584891
s(I142
I2
tp490
F-586.5022055131939
s(I224
I2
tp491
F-1533.7417416550134
s(I264
I3
tp492
F1372.3547728822437
s(I225
I3
tp493
F493.8821637973979
s(I67
I3
tp494
F2163.8521642833357
s(I154
I1
tp495
F898.2803936705432
s(I265
I2
tp496
F-2047.2066848923575
s(I20
I2
tp497
F-323.44688634295136
s(I131
I1
tp498
F1283.9676396411326
s(I21
I3
tp499
F1614.0736015041043
s(I119
I3
tp500
F1130.0947211453456
s(I206
I1
tp501
F1269.657442451959
s(I230
I2
tp502
F-1225.5348454247708
s(I56
I2
tp503
F-2824.062612755774
s(I183
I1
tp504
F773.9223652913664
s(I270
I3
tp505
F768.3587224564861
s(I57
I3
tp506
F1316.2550169814456
s(I242
I1
tp507
F668.1811329995313
s(I10
I2
tp508
F-1523.5651019963593
s(I108
I2
tp509
F-2196.168362780001
s(I195
I2
tp510
F-1233.4044694653535
s(I219
I1
tp511
F1528.667752746634
s(I306
I3
tp512
F547.1999859174667
s(I38
I1
tp513
F657.117931476093
s(I247
I2
tp514
F-1330.6606852767036
s(I15
I1
tp515
F276.5605863019873
s(I184
I3
tp516
F2076.432939186605
s(I260
I2
tp517
F-1710.1223632156666
s(I185
I2
tp518
F-872.6310488135045
s(I268
I1
tp519
F1344.9769876416185
s(I51
I1
tp520
F1541.6444987558514
s(I236
I3
tp521
F797.3211633796017
s(I237
I2
tp522
F-1055.7378853619066
s(I79
I2
tp523
F-1594.8841232856983
s(I103
I1
tp524
F1846.3992915541417
s(I190
I3
tp525
F1441.7580280835664
s(I277
I1
tp526
F900.8762522858898
s(I16
I3
tp527
F1805.4150866830428
s(I17
I2
tp528
F-1038.433033788879
s(I115
I2
tp529
F-193.77487836260434
s(I226
I3
tp530
F329.90703971387666
s(I68
I3
tp531
F1874.307384439222
s(I69
I2
tp532
F-1536.2977877719695
s(I22
I3
tp533
F1373.3977196488026
s(I104
I3
tp534
F1320.0876795539066
s(I168
I1
tp535
F523.532576607825
s(I271
I3
tp536
F1311.7581049654816
s(I58
I3
tp537
F1894.4225474496468
s(I81
I1
tp538
F1445.9602271437961
s(I220
I1
tp539
F493.8779555462969
s(I307
I3
tp540
F701.7797720115458
s(I197
I1
tp541
F1185.7251071783564
s(I261
I3
tp542
F1043.3776429511067
s(I304
I1
tp543
F578.5006480586978
s(I233
I1
tp544
F438.04043100231286
s(I297
I3
tp545
F449.5584364097074
s(I52
I1
tp546
F473.5463592726773
s(I191
I3
tp547
F750.1685884771327
s(I278
I1
tp548
F1103.814323325949
s(I302
I2
tp549
F-90.42899756580815
s(I65
I1
tp550
F1327.1056046314147
s(I129
I3
tp551
F674.2685092549812
s(I227
I3
tp552
F1249.9754134929135
s(I180
I2
tp553
F-1208.4061589091978
s(I267
I2
tp554
F-1159.8490374665262
s(I291
I1
tp555
F437.93505661916373
s(I23
I3
tp556
F1753.2215583658583
s(I216
I2
tp557
F-996.0845822751796
s(I256
I3
tp558
F925.5494313534847
s(I217
I3
tp559
F683.7428339232059
s(I59
I3
tp560
F2655.195635974425
s(I257
I2
tp561
F-2074.419682732316
s(I12
I2
tp562
F-1952.6211648567516
s(I13
I3
tp563
F834.4480962549347
s(I198
I1
tp564
F1902.2560575697532
s(I222
I2
tp565
F-499.8605624168084
s(I48
I2
tp566
F-1449.8008140038062
s(I262
I3
tp567
F889.0516178921498
s(I234
I1
tp568
F1677.1311774229712
s(I187
I2
tp569
F-2268.9719200822715
s(I211
I1
tp570
F1917.665927713192
s(I298
I3
tp571
F973.9477284647714
s(I54
I2
tp572
F-241.712258753318
s(I141
I2
tp573
F-1646.9013980476782
s(I239
I2
tp574
F-1777.9908748817152
s(I7
I1
tp575
F1553.4004808961026
s(I66
I1
tp576
F1190.1253755346768
s(I90
I2
tp577
F-1262.5719096323414
s(I19
I2
tp578
F-527.5747945157259
s(I43
I1
tp579
F1594.899028684496
s(I130
I3
tp580
F1625.5909127965842
s(I228
I3
tp581
F345.2351292070559
s(I118
I1
tp582
F800.410591186118
s(I229
I2
tp583
F-2479.950822407512
s(I71
I2
tp584
F-893.0572050990071
s(I95
I1
tp585
F1297.680051656341
s(I182
I3
tp586
F1191.5308268808692
s(I269
I1
tp587
F1305.9922965517317
s(I8
I3
tp588
F2208.2818006846837
s(I9
I2
tp589
F-782.0627278897471
s(I107
I2
tp590
F-2430.736128296856
s(I218
I3
tp591
F319.5699445903531
s(I305
I1
tp592
F697.9063970618666
s(I60
I3
tp593
F599.0156797631562
s(I128
I2
tp594
F-944.4829637233418
s(I14
I3
tp595
F755.1895522286679
s(I96
I3
tp596
F2136.0478380507016
s(I217
I1
tp597
F181.28484829882473
s(I225
I2
tp598
F-1582.4234372022408
s(I50
I3
tp599
F1435.612463195401
s(I212
I1
tp600
F1069.8314308915462
s(I299
I3
tp601
F554.952960655764
s(I102
I3
tp602
F2051.199136416888
s(I189
I1
tp603
F1441.141688419975
s(I248
I1
tp604
F513.6657474469828
s(I288
I2
tp605
F-1632.491038109247
s(I289
I3
tp606
F312.1251632636475
s(I44
I1
tp607
F1568.1508073974724
s(I131
I3
tp608
F727.9765060826841
s(I21
I1
tp609
F1058.0270683871147
s(I80
I1
tp610
F1639.9316404530864
s(I183
I3
tp611
F1768.5947942868347
s(I270
I1
tp612
F523.0728031718708
s(I294
I2
tp613
F-1708.651671374444
s(I57
I1
tp614
F1760.35721382991
s(I117
I1
tp615
F955.9836960850737
s(I219
I3
tp616
F-61.97533970554571
s(I306
I1
tp617
F187.41754890686235
s(I259
I2
tp618
F-1065.7762742273144
s(I283
I1
tp619
F954.8354408366991
s(I15
I3
tp620
F346.7543743766759
s(I208
I2
tp621
F-1546.3520343334492
s(I209
I3
tp622
F964.8868934659221
s(I51
I3
tp623
F1344.6591685284488
s(I4
I2
tp624
F-789.6180044761022
s(I300
I3
tp625
F626.2761029938056
s(I5
I3
tp626
F1679.3755874358992
s(I103
I3
tp627
F1095.8213464785256
s(I190
I1
tp628
F681.5118326261301
s(I214
I2
tp629
F-909.2472859845093
s(I301
I2
tp630
F-1306.9775938520174
s(I40
I2
tp631
F-2372.856276126368
s(I143
I2
tp632
F-2515.347574347552
s(I167
I1
tp633
F1162.0597367613345
s(I41
I3
tp634
F897.6875892186339
s(I226
I1
tp635
F1185.710144976303
s(I250
I2
tp636
F-1124.972337329805
s(I92
I2
tp637
F-1032.0938659724811
s(I203
I1
tp638
F991.5919001469233
s(I290
I3
tp639
F914.302393382228
s(I132
I3
tp640
F487.0046413724805
s(I93
I3
tp641
F1891.4709171066586
s(I22
I1
tp642
F1004.4312153880729
s(I46
I2
tp643
F-1445.0315641224477
s(I231
I2
tp644
F-1256.1328675479358
s(I255
I1
tp645
F691.4994216583837
s(I168
I3
tp646
F1613.0765739827857
s(I58
I1
tp647
F1426.4893260313518
s(I82
I2
tp648
F-1748.5689544271304
s(I11
I2
tp649
F-1358.153210758148
s(I220
I3
tp650
F546.429707778398
s(I284
I1
tp651
F803.7041255434013
s(I63
I2
tp652
F-1146.7304559181268
s(I261
I1
tp653
F1834.9728856561098
s(I201
I1
tp654
F1050.4257817031119
s(I1
I2
tp655
F-1304.6625585589445
s(I272
I1
tp656
F544.9964260661136
s(I210
I3
tp657
F1237.3370668990017
s(I297
I1
tp658
F852.0273954367331
s(I52
I3
tp659
F1095.9418739430523
s(I53
I2
tp660
F-1710.8596818128183
s(I6
I3
tp661
F1017.6471163374572
s(I89
I2
tp662
F-2095.269320326095
s(I42
I3
tp663
F1248.3396712232875
s(I129
I1
tp664
F1431.0794507863898
s(I204
I1
tp665
F-37.24323473457941
s(I291
I3
tp666
F1152.916536307377
s(I94
I3
tp667
F1344.241507740297
s(I240
I1
tp668
F496.3414111242793
s(I280
I2
tp669
F-1749.2670465045512
s(I281
I3
tp670
F894.6351666607961
s(I36
I1
tp671
F1512.670417156857
s(I13
I1
tp672
F1293.2490441743562
s(I72
I1
tp673
F2609.8122988631517
s(I262
I1
tp674
F1298.4908045556836
s(I286
I2
tp675
F-2060.568942692621
s(I211
I3
tp676
F33.821959869070724
s(I298
I1
tp677
F757.084865531559
s(I275
I1
tp678
F1149.1286037663122
s.